Certificate:
    Data:
        Version: 3 (0x2)
        Serial Number: 4097 (0x1001)
        Signature Algorithm: sha256WithRSAEncryption
        Issuer: CN=ca1.test.confluent.io, OU=TEST, O=CONFLUENT, L=PaloAlto, ST=Ca, C=US
        Validity
            Not Before: Sep 29 20:39:28 2025 GMT
            Not After : Jun 25 20:39:28 2028 GMT
        Subject: CN=kafka,OU=TEST,O=CONFLUENT,L=PaloAlto,S=Ca,C=US
        Subject Public Key Info:
            Public Key Algorithm: rsaEncryption
                Public-Key: (4096 bit)
                Modulus:
                    00:aa:b0:01:a0:7e:b4:8a:96:c5:1c:0a:16:04:48:
                    87:16:3e:7d:0b:90:3b:58:0e:c4:32:a5:b1:fc:db:
                    5e:54:d7:ba:67:79:8c:2b:e5:32:6e:40:a2:09:3c:
                    82:3c:50:61:ad:2d:03:31:ed:40:8a:f0:76:25:54:
                    28:7d:2b:75:f9:c8:88:71:cf:37:11:31:c8:0d:81:
                    cf:fd:2f:bf:b3:5b:a1:76:a3:6c:e6:a1:c2:04:0d:
                    aa:01:6b:bf:a0:79:86:b2:88:4d:41:df:39:3c:14:
                    50:64:52:79:5d:e1:b6:88:e2:52:fa:bd:12:5d:8c:
                    6b:b8:81:e4:86:c1:53:40:d0:e2:ea:c6:76:9d:b5:
                    e6:cd:2c:5d:fe:04:c9:63:b3:45:ad:d8:f5:24:37:
                    14:62:d3:d2:cf:e0:ff:f7:2b:ce:fd:cb:4e:f2:4c:
                    63:b8:06:a6:aa:e0:35:4b:ab:e3:5c:47:4a:e4:95:
                    9a:15:d7:30:6d:d8:5d:f9:00:b8:f7:a0:dd:40:64:
                    ac:17:4d:8e:30:f1:9e:f2:0c:75:b7:a0:41:be:ff:
                    61:a1:9b:8a:ae:5e:69:06:d2:92:a2:e5:31:67:37:
                    58:74:9c:f9:a2:22:9c:b3:da:75:a1:d9:c1:fc:93:
                    33:77:a2:ba:47:a5:22:58:d5:5d:e2:b5:ee:b5:cc:
                    42:63:9d:00:73:ee:13:7b:9c:ee:48:de:e0:07:14:
                    25:0e:c9:0c:62:93:ac:78:cd:71:7e:29:8b:5b:9f:
                    33:ec:de:53:39:45:2f:59:a3:e6:c5:a2:8e:97:93:
                    ef:fe:35:d4:cd:f6:81:b5:e0:d7:09:b9:88:b2:93:
                    39:26:40:1e:e9:4c:87:45:4e:38:ac:b7:23:1e:f8:
                    6f:b0:be:0e:ce:4e:b7:a6:00:03:ed:87:ce:82:9e:
                    04:18:68:db:87:91:64:16:46:bc:cd:2c:36:f3:68:
                    97:58:d0:3d:9c:7a:57:b0:08:23:4d:68:05:7f:23:
                    a9:65:8a:d5:20:5d:3c:bb:74:7b:a6:81:54:be:9c:
                    be:75:20:70:e7:8a:9a:a0:12:13:ec:07:10:23:14:
                    ad:ff:84:85:16:06:e4:5a:59:f1:f9:50:fd:3f:22:
                    e4:18:e6:a7:eb:3f:9b:17:b9:ce:51:e7:c2:1d:57:
                    2c:9b:ca:f0:bd:38:0e:d1:84:3c:56:09:e9:49:28:
                    4a:f5:7c:62:a8:44:db:5f:a4:81:4f:c1:a7:8c:ab:
                    e0:5a:94:39:e7:f6:cd:28:44:17:f3:6f:07:db:19:
                    50:9b:68:fd:8d:63:09:fd:2e:23:2d:6d:5c:3f:fd:
                    57:6c:09:95:11:a3:df:54:8a:10:02:18:22:db:e2:
                    08:e3:bd
                Exponent: 65537 (0x10001)
        X509v3 extensions:
            X509v3 Subject Key Identifier: 
                F1:75:20:A4:87:F6:55:95:94:44:94:F7:DC:ED:96:BB:06:5A:5F:0F
            X509v3 Authority Key Identifier: 
                8F:24:7C:F7:E7:69:51:B8:58:00:F3:A8:9D:A0:47:70:CD:04:83:CA
            X509v3 Basic Constraints: 
                CA:FALSE
            X509v3 Key Usage: 
                Digital Signature, Key Encipherment
            X509v3 Extended Key Usage: 
                TLS Web Server Authentication, TLS Web Client Authentication
            X509v3 Subject Alternative Name: 
                DNS:kafka, DNS:kafka.confluent.svc.cluster.local, DNS:kafka-service, DNS:*.confluent.svc.cluster.local, DNS:*.kafka.confluent.svc.cluster.local
    Signature Algorithm: sha256WithRSAEncryption
    Signature Value:
        93:c5:cb:09:79:92:aa:2a:01:06:01:2d:00:7f:57:1d:ed:06:
        55:00:c2:bf:46:a1:00:1b:97:6a:43:88:bb:80:38:1e:6a:69:
        1f:0f:7e:29:4f:a0:e1:90:5b:2a:2a:a6:38:c0:e8:71:97:de:
        f4:72:92:cb:64:d0:97:e7:5d:d5:e9:24:fd:a4:f1:a8:b0:a4:
        2b:c5:fc:f1:a0:04:04:b7:ca:39:a1:90:05:ef:98:c4:9f:3f:
        f8:40:4c:d7:b2:52:9a:be:3a:87:89:57:21:3e:1a:b0:0d:5f:
        6d:c3:34:c3:61:c0:9b:d5:9b:d3:59:a3:34:a7:06:d3:5e:65:
        bb:c5:34:01:14:ad:0e:65:14:50:31:61:c3:d4:f9:73:af:64:
        88:e8:d7:8b:c6:33:6f:7f:90:86:6c:fd:27:0b:d7:a5:4a:2b:
        67:3d:49:b4:91:06:a1:10:0d:df:4f:fb:b8:cf:84:85:82:43:
        45:30:87:6a:e9:c4:70:39:dd:0f:bf:62:bf:21:ee:58:1d:d2:
        bc:81:ee:d0:b8:04:1a:1f:b0:a3:b7:fc:05:12:46:94:2b:57:
        e4:d2:37:b1:98:99:11:86:74:ca:29:6e:f4:f1:6a:34:e6:27:
        c4:39:19:d9:45:07:49:95:79:18:b3:cc:71:fe:62:2b:fb:a6:
        8f:40:d7:2a:9b:ee:60:ee:05:c3:10:a0:23:21:88:11:6a:36:
        c5:2b:24:82:32:06:45:e6:c5:33:07:6c:3b:84:e8:6d:33:11:
        3d:b4:ac:ce:4e:ca:db:fa:8a:c0:16:b6:84:9f:a5:e7:15:86:
        4c:a9:1d:92:f2:2a:35:1a:34:d5:3f:b3:2b:f2:ef:e2:8d:27:
        31:0f:48:42:9e:dd:27:21:69:cb:cd:1d:4e:41:e1:2e:38:55:
        ce:67:83:14:1b:17:97:7e:a0:d6:18:56:02:7a:03:2a:7c:88:
        14:2f:4e:65:30:84:0d:60:67:a7:7d:21:ff:cc:f5:18:97:58:
        8f:a8:a8:7f:4e:6e:b4:1b:b9:2a:02:1e:0e:f0:10:c4:7a:de:
        38:f9:35:91:ec:f0:a6:bd:36:6d:72:f5:3a:32:aa:94:2d:06:
        ba:c6:72:ed:fc:a7:42:cd:4c:f0:81:98:c0:81:d8:b2:30:40:
        26:9e:af:6f:6e:b2:bd:69:ac:d7:48:98:80:98:71:19:09:d5:
        e8:be:2a:bc:ad:38:e3:9e:ca:58:c7:63:aa:25:ea:b7:64:de:
        0c:a4:c4:4f:86:66:c2:fb:dd:c3:23:79:ac:bb:0e:9d:3e:b2:
        8d:76:41:f8:60:81:f6:76:3a:35:30:2e:98:d8:11:d9:22:22:
        43:df:25:e0:f8:e2:1d:32
-----BEGIN CERTIFICATE-----
MIIGKzCCBBOgAwIBAgICEAEwDQYJKoZIhvcNAQELBQAwcDEeMBwGA1UEAwwVY2Ex
LnRlc3QuY29uZmx1ZW50LmlvMQ0wCwYDVQQLDARURVNUMRIwEAYDVQQKDAlDT05G
TFVFTlQxETAPBgNVBAcMCFBhbG9BbHRvMQswCQYDVQQIDAJDYTELMAkGA1UEBhMC
VVMwHhcNMjUwOTI5MjAzOTI4WhcNMjgwNjI1MjAzOTI4WjA5MTcwNQYDVQQDDC5r
YWZrYSxPVT1URVNULE89Q09ORkxVRU5ULEw9UGFsb0FsdG8sUz1DYSxDPVVTMIIC
IjANBgkqhkiG9w0BAQEFAAOCAg8AMIICCgKCAgEAqrABoH60ipbFHAoWBEiHFj59
C5A7WA7EMqWx/NteVNe6Z3mMK+UybkCiCTyCPFBhrS0DMe1AivB2JVQofSt1+ciI
cc83ETHIDYHP/S+/s1uhdqNs5qHCBA2qAWu/oHmGsohNQd85PBRQZFJ5XeG2iOJS
+r0SXYxruIHkhsFTQNDi6sZ2nbXmzSxd/gTJY7NFrdj1JDcUYtPSz+D/9yvO/ctO
8kxjuAamquA1S6vjXEdK5JWaFdcwbdhd+QC496DdQGSsF02OMPGe8gx1t6BBvv9h
oZuKrl5pBtKSouUxZzdYdJz5oiKcs9p1odnB/JMzd6K6R6UiWNVd4rXutcxCY50A
c+4Te5zuSN7gBxQlDskMYpOseM1xfimLW58z7N5TOUUvWaPmxaKOl5Pv/jXUzfaB
teDXCbmIspM5JkAe6UyHRU44rLcjHvhvsL4Ozk63pgAD7YfOgp4EGGjbh5FkFka8
zSw282iXWNA9nHpXsAgjTWgFfyOpZYrVIF08u3R7poFUvpy+dSBw54qaoBIT7AcQ
IxSt/4SFFgbkWlnx+VD9PyLkGOan6z+bF7nOUefCHVcsm8rwvTgO0YQ8VgnpSShK
9XxiqETbX6SBT8GnjKvgWpQ55/bNKEQX828H2xlQm2j9jWMJ/S4jLW1cP/1XbAmV
EaPfVIoQAhgi2+II470CAwEAAaOCAQQwggEAMB0GA1UdDgQWBBTxdSCkh/ZVlZRE
lPfc7Za7BlpfDzAfBgNVHSMEGDAWgBSPJHz352lRuFgA86idoEdwzQSDyjAJBgNV
HRMEAjAAMAsGA1UdDwQEAwIFoDAdBgNVHSUEFjAUBggrBgEFBQcDAQYIKwYBBQUH
AwIwgYYGA1UdEQR/MH2CBWthZmthgiFrYWZrYS5jb25mbHVlbnQuc3ZjLmNsdXN0
ZXIubG9jYWyCDWthZmthLXNlcnZpY2WCHSouY29uZmx1ZW50LnN2Yy5jbHVzdGVy
LmxvY2FsgiMqLmthZmthLmNvbmZsdWVudC5zdmMuY2x1c3Rlci5sb2NhbDANBgkq
hkiG9w0BAQsFAAOCAgEAk8XLCXmSqioBBgEtAH9XHe0GVQDCv0ahABuXakOIu4A4
HmppHw9+KU+g4ZBbKiqmOMDocZfe9HKSy2TQl+dd1ekk/aTxqLCkK8X88aAEBLfK
OaGQBe+YxJ8/+EBM17JSmr46h4lXIT4asA1fbcM0w2HAm9Wb01mjNKcG015lu8U0
ARStDmUUUDFhw9T5c69kiOjXi8Yzb3+Qhmz9JwvXpUorZz1JtJEGoRAN30/7uM+E
hYJDRTCHaunEcDndD79ivyHuWB3SvIHu0LgEGh+wo7f8BRJGlCtX5NI3sZiZEYZ0
yilu9PFqNOYnxDkZ2UUHSZV5GLPMcf5iK/umj0DXKpvuYO4FwxCgIyGIEWo2xSsk
gjIGRebFMwdsO4TobTMRPbSszk7K2/qKwBa2hJ+l5xWGTKkdkvIqNRo01T+zK/Lv
4o0nMQ9IQp7dJyFpy80dTkHhLjhVzmeDFBsXl36g1hhWAnoDKnyIFC9OZTCEDWBn
p30h/8z1GJdYj6iof05utBu5KgIeDvAQxHreOPk1kezwpr02bXL1OjKqlC0GusZy
7fynQs1M8IGYwIHYsjBAJp6vb26yvWms10iYgJhxGQnV6L4qvK04457KWMdjqiXq
t2TeDKTET4ZmwvvdwyN5rLsOnT6yjXZB+GCB9nY6NTAumNgR2SIiQ98l4PjiHTI=
-----END CERTIFICATE-----
