Certificate:
    Data:
        Version: 3 (0x2)
        Serial Number: 4108 (0x100c)
        Signature Algorithm: sha256WithRSAEncryption
        Issuer: CN=ca1.test.confluent.io, OU=TEST, O=CONFLUENT, L=PaloAlto, ST=Ca, C=US
        Validity
            Not Before: Sep 29 20:39:41 2025 GMT
            Not After : Jun 25 20:39:41 2028 GMT
        Subject: CN=cmfrestclass,OU=TEST,O=CONFLUENT,L=PaloAlto,S=Ca,C=US
        Subject Public Key Info:
            Public Key Algorithm: rsaEncryption
                Public-Key: (4096 bit)
                Modulus:
                    00:83:3d:d2:3d:1b:13:6c:1d:9f:8b:cb:47:d0:2b:
                    6e:71:41:a0:cf:92:5c:0c:db:86:f6:5b:c3:8e:9a:
                    8c:ba:b4:f2:76:97:0e:d4:90:b9:4c:81:bf:0c:c8:
                    23:51:6f:9c:b0:39:fb:c1:31:af:58:07:63:d7:a5:
                    d3:db:8e:32:ff:d2:24:d8:c8:d8:10:30:2a:fe:f0:
                    73:6a:3a:27:3d:7f:b5:89:9c:66:11:3d:92:f0:87:
                    25:28:83:37:66:ed:07:0d:5f:33:4e:64:f1:16:36:
                    49:a5:1e:94:36:9d:e8:ca:65:d3:39:ab:c1:0c:fe:
                    49:b1:e4:d1:fd:de:3d:a5:86:1f:4d:34:db:85:fa:
                    14:3c:52:67:d9:b2:04:99:dc:10:3d:22:b4:34:d8:
                    95:8f:e9:18:37:b9:df:a0:e0:ec:2d:8c:a0:d8:14:
                    e3:89:68:35:32:c4:63:0e:36:72:23:51:bf:9b:e9:
                    34:22:4a:b9:57:11:ba:16:16:8b:d5:d1:71:d8:81:
                    db:fa:b8:73:1d:2b:8d:a6:7b:bc:38:60:51:89:cd:
                    44:df:a1:36:0d:0b:e1:a4:09:3b:97:8f:50:e9:f9:
                    05:23:3b:bc:cf:f6:20:eb:84:74:33:cf:ca:38:1f:
                    8b:34:3d:4a:91:ed:ff:3d:c2:d7:b7:40:e4:fa:64:
                    40:c9:ee:74:c6:85:56:f9:5e:94:45:c0:c7:be:65:
                    92:2b:b3:bf:7b:a3:f5:ab:0c:ef:f5:e5:00:08:04:
                    68:16:76:8d:c7:8d:67:ac:da:cb:db:6e:ad:bf:bd:
                    d8:2b:db:39:5e:e2:c9:5d:6c:4a:31:88:6a:f6:25:
                    51:76:68:03:68:1f:16:6b:30:2d:c7:1f:0b:e8:f9:
                    cb:92:49:a3:48:42:83:13:14:00:6f:42:db:0b:e7:
                    83:da:1e:e0:0a:7d:be:c9:c3:8b:20:69:39:35:a7:
                    2d:55:67:11:89:23:3b:e7:56:2c:db:cd:cf:af:a3:
                    de:01:eb:aa:52:30:ca:e8:02:aa:00:31:0b:2c:9f:
                    96:b7:28:f3:de:f3:09:64:aa:01:6f:71:49:df:0e:
                    5f:96:99:c2:39:38:43:6e:ff:fa:a4:3a:da:b5:3d:
                    e0:a2:67:cb:30:cd:dd:9c:1c:05:97:10:22:7b:bb:
                    d7:29:39:cd:a8:cb:c3:75:ca:e4:f0:68:ea:31:81:
                    08:74:09:c4:62:07:9c:e3:25:3a:05:4d:47:24:e5:
                    a8:62:08:ce:2d:c6:da:79:f3:80:a6:a5:31:09:00:
                    b7:a3:f5:4a:aa:e8:c8:9e:ef:d8:52:32:75:68:73:
                    8b:d1:61:ee:69:83:0e:35:6a:7c:f2:53:9e:30:a1:
                    ab:e1:c7
                Exponent: 65537 (0x10001)
        X509v3 extensions:
            X509v3 Subject Key Identifier: 
                81:6A:D1:11:0A:0F:80:04:DB:CC:29:F3:A9:51:1F:E5:9D:72:7C:A8
            X509v3 Authority Key Identifier: 
                8F:24:7C:F7:E7:69:51:B8:58:00:F3:A8:9D:A0:47:70:CD:04:83:CA
            X509v3 Basic Constraints: 
                CA:FALSE
            X509v3 Key Usage: 
                Digital Signature, Key Encipherment
            X509v3 Extended Key Usage: 
                TLS Web Server Authentication, TLS Web Client Authentication
            X509v3 Subject Alternative Name: 
                DNS:cmfrestclass, DNS:cmfrestclass.confluent.svc.cluster.local, DNS:cmfrestclass-service, DNS:*.confluent.svc.cluster.local, DNS:*.cmfrestclass.confluent.svc.cluster.local
    Signature Algorithm: sha256WithRSAEncryption
    Signature Value:
        b6:79:96:ea:dd:75:58:80:61:70:5a:ce:59:ab:73:c4:10:4d:
        b1:50:99:1e:4c:4b:66:37:98:e6:e4:a3:2c:b5:66:53:89:13:
        73:ec:83:4c:47:c0:88:65:87:60:a0:7b:63:3b:8e:14:14:ca:
        68:63:0a:ea:58:6a:cb:cc:f7:d5:c6:da:9f:e2:a7:8e:5e:08:
        3c:6c:73:4f:5b:57:15:df:cd:92:05:eb:52:d4:1b:ab:48:52:
        bd:f6:5b:24:20:07:56:14:c8:6f:9f:b0:c8:ce:6b:ea:f1:d8:
        1f:d8:c0:16:80:c3:bd:80:5d:ab:fb:94:e1:c6:2f:05:87:7d:
        00:f1:b2:9f:7a:ab:af:88:63:32:46:27:5f:53:79:8c:c3:f6:
        17:30:0c:85:7f:4d:b6:fb:c9:f5:6b:87:b9:11:f6:b9:41:fc:
        91:b7:2e:ae:cb:55:bd:7b:fe:18:de:cd:30:be:4e:36:b1:16:
        a7:41:2b:bb:54:a0:d4:f7:94:dd:ff:7f:cb:dc:54:19:e3:2d:
        cb:b2:87:49:3f:36:d9:5e:82:79:d9:73:18:28:91:87:01:14:
        bb:27:9f:a0:5c:c7:4d:20:81:59:f8:d9:7b:d3:8c:2b:f6:d5:
        2c:0b:1b:0d:1f:47:a7:5a:bc:f2:2f:f7:89:60:bf:c6:b8:7f:
        2b:f8:7f:c5:12:49:e6:e4:ee:1a:a5:65:fb:6c:ba:64:aa:e2:
        93:6e:a7:af:09:3b:dd:47:0e:80:82:b6:c8:9a:be:00:ca:71:
        80:09:5e:45:a6:39:0b:be:3f:12:f0:c8:57:dd:39:97:e8:69:
        54:e6:82:40:c6:ce:11:b6:db:92:e5:4c:48:a4:3f:a3:5c:07:
        6c:84:83:ac:db:00:b6:47:8b:db:7b:d3:43:89:cd:81:ec:d8:
        c9:53:98:c9:2e:9e:e3:e6:ba:73:3f:42:df:3c:1e:8d:50:0f:
        c9:ad:52:60:cb:42:12:09:ea:5d:70:4a:db:13:f0:ea:95:d4:
        b7:2a:13:5c:7a:7d:12:79:7a:aa:01:22:85:b6:ba:4e:2c:5c:
        89:8b:29:03:52:70:41:a9:98:12:f8:66:8a:d0:e7:16:a1:81:
        54:29:62:75:a0:4e:65:d9:a1:0f:d8:04:10:e2:e2:7e:b1:aa:
        ed:91:a0:6f:a4:be:18:e6:99:03:45:76:2d:54:6f:15:b2:3a:
        e2:87:af:a7:8e:70:40:89:c4:c9:0e:77:25:d1:00:fd:90:0f:
        c1:4f:96:88:96:ec:a6:7b:23:db:0f:5d:a6:9d:79:47:ea:23:
        be:9d:da:8e:24:9c:66:e3:9d:03:56:92:3a:b3:e4:c3:e3:bc:
        79:1e:9b:f4:53:53:6e:2a
-----BEGIN CERTIFICATE-----
MIIGUDCCBDigAwIBAgICEAwwDQYJKoZIhvcNAQELBQAwcDEeMBwGA1UEAwwVY2Ex
LnRlc3QuY29uZmx1ZW50LmlvMQ0wCwYDVQQLDARURVNUMRIwEAYDVQQKDAlDT05G
TFVFTlQxETAPBgNVBAcMCFBhbG9BbHRvMQswCQYDVQQIDAJDYTELMAkGA1UEBhMC
VVMwHhcNMjUwOTI5MjAzOTQxWhcNMjgwNjI1MjAzOTQxWjBAMT4wPAYDVQQDDDVj
bWZyZXN0Y2xhc3MsT1U9VEVTVCxPPUNPTkZMVUVOVCxMPVBhbG9BbHRvLFM9Q2Es
Qz1VUzCCAiIwDQYJKoZIhvcNAQEBBQADggIPADCCAgoCggIBAIM90j0bE2wdn4vL
R9ArbnFBoM+SXAzbhvZbw46ajLq08naXDtSQuUyBvwzII1FvnLA5+8Exr1gHY9el
09uOMv/SJNjI2BAwKv7wc2o6Jz1/tYmcZhE9kvCHJSiDN2btBw1fM05k8RY2SaUe
lDad6Mpl0zmrwQz+SbHk0f3ePaWGH00024X6FDxSZ9myBJncED0itDTYlY/pGDe5
36Dg7C2MoNgU44loNTLEYw42ciNRv5vpNCJKuVcRuhYWi9XRcdiB2/q4cx0rjaZ7
vDhgUYnNRN+hNg0L4aQJO5ePUOn5BSM7vM/2IOuEdDPPyjgfizQ9SpHt/z3C17dA
5PpkQMnudMaFVvlelEXAx75lkiuzv3uj9asM7/XlAAgEaBZ2jceNZ6zay9turb+9
2CvbOV7iyV1sSjGIavYlUXZoA2gfFmswLccfC+j5y5JJo0hCgxMUAG9C2wvng9oe
4Ap9vsnDiyBpOTWnLVVnEYkjO+dWLNvNz6+j3gHrqlIwyugCqgAxCyyflrco897z
CWSqAW9xSd8OX5aZwjk4Q27/+qQ62rU94KJnyzDN3ZwcBZcQInu71yk5zajLw3XK
5PBo6jGBCHQJxGIHnOMlOgVNRyTlqGIIzi3G2nnzgKalMQkAt6P1SqroyJ7v2FIy
dWhzi9Fh7mmDDjVqfPJTnjChq+HHAgMBAAGjggEiMIIBHjAdBgNVHQ4EFgQUgWrR
EQoPgATbzCnzqVEf5Z1yfKgwHwYDVR0jBBgwFoAUjyR89+dpUbhYAPOonaBHcM0E
g8owCQYDVR0TBAIwADALBgNVHQ8EBAMCBaAwHQYDVR0lBBYwFAYIKwYBBQUHAwEG
CCsGAQUFBwMCMIGkBgNVHREEgZwwgZmCDGNtZnJlc3RjbGFzc4IoY21mcmVzdGNs
YXNzLmNvbmZsdWVudC5zdmMuY2x1c3Rlci5sb2NhbIIUY21mcmVzdGNsYXNzLXNl
cnZpY2WCHSouY29uZmx1ZW50LnN2Yy5jbHVzdGVyLmxvY2FsgioqLmNtZnJlc3Rj
bGFzcy5jb25mbHVlbnQuc3ZjLmNsdXN0ZXIubG9jYWwwDQYJKoZIhvcNAQELBQAD
ggIBALZ5lurddViAYXBazlmrc8QQTbFQmR5MS2Y3mObkoyy1ZlOJE3Psg0xHwIhl
h2Cge2M7jhQUymhjCupYasvM99XG2p/ip45eCDxsc09bVxXfzZIF61LUG6tIUr32
WyQgB1YUyG+fsMjOa+rx2B/YwBaAw72AXav7lOHGLwWHfQDxsp96q6+IYzJGJ19T
eYzD9hcwDIV/Tbb7yfVrh7kR9rlB/JG3Lq7LVb17/hjezTC+TjaxFqdBK7tUoNT3
lN3/f8vcVBnjLcuyh0k/NtlegnnZcxgokYcBFLsnn6Bcx00ggVn42XvTjCv21SwL
Gw0fR6davPIv94lgv8a4fyv4f8USSebk7hqlZftsumSq4pNup68JO91HDoCCtsia
vgDKcYAJXkWmOQu+PxLwyFfdOZfoaVTmgkDGzhG225LlTEikP6NcB2yEg6zbALZH
i9t700OJzYHs2MlTmMkunuPmunM/Qt88Ho1QD8mtUmDLQhIJ6l1wStsT8OqV1Lcq
E1x6fRJ5eqoBIoW2uk4sXImLKQNScEGpmBL4ZorQ5xahgVQpYnWgTmXZoQ/YBBDi
4n6xqu2RoG+kvhjmmQNFdi1UbxWyOuKHr6eOcECJxMkOdyXRAP2QD8FPloiW7KZ7
I9sPXaadeUfqI76d2o4knGbjnQNWkjqz5MPjvHkem/RTU24q
-----END CERTIFICATE-----
