Certificate:
    Data:
        Version: 3 (0x2)
        Serial Number: 4104 (0x1008)
        Signature Algorithm: sha256WithRSAEncryption
        Issuer: CN=ca1.test.confluent.io, OU=TEST, O=CONFLUENT, L=PaloAlto, ST=Ca, C=US
        Validity
            Not Before: Sep 29 20:39:38 2025 GMT
            Not After : Jun 25 20:39:38 2028 GMT
        Subject: CN=alertmanager-client,OU=TEST,O=CONFLUENT,L=PaloAlto,S=Ca,C=US
        Subject Public Key Info:
            Public Key Algorithm: rsaEncryption
                Public-Key: (4096 bit)
                Modulus:
                    00:c5:be:7f:28:0f:08:d4:97:62:cc:d6:e3:74:50:
                    1f:19:9e:84:ea:03:8a:53:c5:76:4c:ab:8c:a2:59:
                    6c:e8:d4:e2:8c:76:04:70:bb:15:56:2f:ab:cc:82:
                    fb:d5:bc:81:0f:c1:47:40:2c:fa:5b:82:ea:af:1c:
                    68:f6:17:30:66:29:67:12:ea:ad:11:bb:5c:d2:30:
                    82:71:13:0d:ec:3f:87:32:e6:bc:9c:4a:24:cb:f4:
                    df:2f:0d:2f:b5:9f:2e:28:8d:71:f6:30:10:d3:29:
                    03:bc:37:ba:8b:7d:e2:ab:df:16:33:63:60:d7:4b:
                    79:94:d0:bc:92:09:47:fc:81:a6:8c:4e:f9:70:e2:
                    7f:de:62:55:d0:88:cb:17:dd:8e:72:db:b4:ce:0e:
                    72:00:5e:08:1e:d6:86:09:a9:61:e6:09:5f:b6:a6:
                    7a:1c:f4:9d:bf:03:b0:09:32:f7:25:d6:d0:3b:c9:
                    b9:03:cc:b2:1a:86:58:18:66:dd:36:ea:4a:7c:54:
                    f6:39:47:45:3d:a1:2b:53:d8:e2:5d:84:e4:92:2d:
                    25:6c:7a:35:c0:b1:37:b9:69:ba:75:67:b8:29:c7:
                    0b:88:ab:cd:be:1d:51:5b:a3:e5:da:cc:c4:b2:f6:
                    ca:48:c3:c0:f4:a8:f6:9d:04:98:c4:d8:fb:68:02:
                    94:a3:e1:7e:be:8a:a8:59:16:70:ec:fd:87:33:ca:
                    b9:94:88:6b:bd:59:ee:0f:b9:5e:05:6b:94:72:6c:
                    9b:53:60:93:92:2b:d7:ca:f9:44:bc:f6:89:10:87:
                    f0:7c:80:a8:29:46:8a:0a:fb:30:2a:98:c3:3b:76:
                    5a:02:bc:65:b8:23:23:6d:33:c9:72:ec:03:dc:b0:
                    9d:1c:07:85:34:45:10:d6:81:39:e5:64:e1:36:c2:
                    55:99:f0:a8:5a:30:dd:e6:66:4f:8f:c3:2e:7f:81:
                    38:71:e2:32:df:6c:55:a9:20:1d:59:56:d7:22:eb:
                    82:7a:df:f1:a0:bd:3f:31:75:6d:09:c2:59:ef:57:
                    ab:c9:fa:ff:65:86:49:5e:58:06:d4:45:7b:41:ad:
                    8d:c2:16:84:bf:7e:d3:a0:70:8f:62:25:5c:8a:d2:
                    76:5c:56:86:b7:a9:85:88:f1:69:16:bd:e6:62:00:
                    87:98:96:4c:68:15:95:f1:fb:bb:5d:91:ad:e9:07:
                    eb:73:ec:73:07:3b:36:df:7d:21:32:8a:a4:52:b2:
                    4b:da:46:c3:f7:c7:a3:17:af:17:8e:9e:1a:7b:f8:
                    6e:01:3e:1d:75:d2:41:06:f7:17:a6:eb:70:9e:a8:
                    52:7e:a3:cf:f7:f9:6f:92:b7:94:34:47:85:8d:64:
                    e6:5f:f5
                Exponent: 65537 (0x10001)
        X509v3 extensions:
            X509v3 Subject Key Identifier: 
                1D:1C:6D:53:12:F2:2C:AE:EE:E0:46:A7:96:76:11:EC:73:D9:11:80
            X509v3 Authority Key Identifier: 
                8F:24:7C:F7:E7:69:51:B8:58:00:F3:A8:9D:A0:47:70:CD:04:83:CA
            X509v3 Basic Constraints: 
                CA:FALSE
            X509v3 Key Usage: 
                Digital Signature, Key Encipherment
            X509v3 Extended Key Usage: 
                TLS Web Server Authentication, TLS Web Client Authentication
            X509v3 Subject Alternative Name: 
                DNS:alertmanager-client, DNS:alertmanager-client.confluent.svc.cluster.local, DNS:alertmanager-client-service, DNS:*.confluent.svc.cluster.local, DNS:*.alertmanager-client.confluent.svc.cluster.local
    Signature Algorithm: sha256WithRSAEncryption
    Signature Value:
        aa:38:5f:6a:9e:6a:d6:57:c7:c0:8f:30:6c:33:c6:06:12:e8:
        97:25:04:44:87:51:0d:15:51:d2:24:77:09:49:ef:db:ba:99:
        f0:d0:7e:7f:41:d8:e1:31:f1:9a:96:04:d3:21:48:68:b6:74:
        40:36:96:c9:50:b4:49:e0:aa:f9:f1:92:12:33:7b:62:4d:e3:
        cf:b2:07:ac:95:4d:35:f3:16:1c:3c:95:08:23:22:3a:36:0a:
        db:06:ba:31:3b:c0:58:eb:45:bc:7b:0f:96:94:4e:76:5e:7f:
        f5:54:4c:7b:56:ce:d3:88:25:82:24:da:a1:61:c2:55:48:ef:
        67:f5:3b:fb:d6:2b:a0:73:39:04:ec:a1:d4:89:cd:c0:3e:48:
        fe:00:23:8f:e5:f4:4e:15:02:18:b0:9e:16:4d:71:9c:be:c9:
        54:59:6b:1a:5a:bf:2e:ab:27:fb:4b:77:52:d7:e4:48:51:f0:
        b7:b2:9a:cb:20:12:65:9d:08:41:23:89:6e:1d:af:ba:c9:7e:
        b3:ed:2a:20:3b:69:62:3e:2b:38:35:3f:1e:60:91:c5:48:ef:
        6e:88:2b:d9:ba:f9:bd:7b:12:5f:7f:c6:c2:bd:57:df:c4:91:
        e4:b6:ea:71:32:67:00:bc:71:ee:af:34:99:b1:3f:5c:f7:d8:
        fa:d0:87:61:91:ab:d6:d5:4a:1f:b2:be:f8:25:05:af:5f:60:
        b8:7f:40:16:c6:f6:e7:15:58:cc:cc:5a:b1:ad:14:81:4e:6f:
        e6:6d:09:c6:f5:93:0f:4d:dd:56:f2:6d:cd:78:8d:72:34:5a:
        f4:6b:f9:1e:e5:75:85:d5:a5:38:09:69:03:e4:4a:a5:36:f6:
        23:5b:32:b3:9d:a6:29:7a:b5:d8:d3:6c:22:25:cf:60:54:c2:
        49:d2:fb:72:87:26:a7:69:b7:09:70:d5:33:0b:81:81:04:00:
        eb:6b:92:9d:d8:62:2b:6b:f8:8e:e4:83:63:23:22:22:f6:83:
        4b:4e:a2:49:fe:8e:15:77:81:41:b7:33:36:dd:f3:4a:d6:27:
        29:82:0f:7e:7f:09:cd:fa:5a:d2:b7:fa:d7:c4:8e:eb:8f:14:
        79:ab:73:92:ea:0f:a6:9a:39:0b:ec:90:a0:c9:92:bc:3a:85:
        00:bb:d6:49:5a:6f:aa:5a:63:99:1b:cb:2b:9b:d3:e4:10:e5:
        4f:c1:7c:f1:7c:fa:5d:b2:af:ff:66:5b:59:69:7a:76:05:7b:
        96:b9:d3:1f:a8:7a:f1:af:a5:50:66:23:4e:19:a6:1d:b1:56:
        b9:52:99:20:5b:0f:28:1d:23:0e:83:33:e4:87:9b:84:17:1d:
        c4:df:4a:c1:42:24:1f:45
-----BEGIN CERTIFICATE-----
MIIGczCCBFugAwIBAgICEAgwDQYJKoZIhvcNAQELBQAwcDEeMBwGA1UEAwwVY2Ex
LnRlc3QuY29uZmx1ZW50LmlvMQ0wCwYDVQQLDARURVNUMRIwEAYDVQQKDAlDT05G
TFVFTlQxETAPBgNVBAcMCFBhbG9BbHRvMQswCQYDVQQIDAJDYTELMAkGA1UEBhMC
VVMwHhcNMjUwOTI5MjAzOTM4WhcNMjgwNjI1MjAzOTM4WjBHMUUwQwYDVQQDDDxh
bGVydG1hbmFnZXItY2xpZW50LE9VPVRFU1QsTz1DT05GTFVFTlQsTD1QYWxvQWx0
byxTPUNhLEM9VVMwggIiMA0GCSqGSIb3DQEBAQUAA4ICDwAwggIKAoICAQDFvn8o
DwjUl2LM1uN0UB8ZnoTqA4pTxXZMq4yiWWzo1OKMdgRwuxVWL6vMgvvVvIEPwUdA
LPpbguqvHGj2FzBmKWcS6q0Ru1zSMIJxEw3sP4cy5rycSiTL9N8vDS+1ny4ojXH2
MBDTKQO8N7qLfeKr3xYzY2DXS3mU0LySCUf8gaaMTvlw4n/eYlXQiMsX3Y5y27TO
DnIAXgge1oYJqWHmCV+2pnoc9J2/A7AJMvcl1tA7ybkDzLIahlgYZt026kp8VPY5
R0U9oStT2OJdhOSSLSVsejXAsTe5abp1Z7gpxwuIq82+HVFbo+XazMSy9spIw8D0
qPadBJjE2PtoApSj4X6+iqhZFnDs/YczyrmUiGu9We4PuV4Fa5RybJtTYJOSK9fK
+US89okQh/B8gKgpRooK+zAqmMM7dloCvGW4IyNtM8ly7APcsJ0cB4U0RRDWgTnl
ZOE2wlWZ8KhaMN3mZk+Pwy5/gThx4jLfbFWpIB1ZVtci64J63/GgvT8xdW0Jwlnv
V6vJ+v9lhkleWAbURXtBrY3CFoS/ftOgcI9iJVyK0nZcVoa3qYWI8WkWveZiAIeY
lkxoFZXx+7tdka3pB+tz7HMHOzbffSEyiqRSskvaRsP3x6MXrxeOnhp7+G4BPh11
0kEG9xem63CeqFJ+o8/3+W+St5Q0R4WNZOZf9QIDAQABo4IBPjCCATowHQYDVR0O
BBYEFB0cbVMS8iyu7uBGp5Z2Eexz2RGAMB8GA1UdIwQYMBaAFI8kfPfnaVG4WADz
qJ2gR3DNBIPKMAkGA1UdEwQCMAAwCwYDVR0PBAQDAgWgMB0GA1UdJQQWMBQGCCsG
AQUFBwMBBggrBgEFBQcDAjCBwAYDVR0RBIG4MIG1ghNhbGVydG1hbmFnZXItY2xp
ZW50gi9hbGVydG1hbmFnZXItY2xpZW50LmNvbmZsdWVudC5zdmMuY2x1c3Rlci5s
b2NhbIIbYWxlcnRtYW5hZ2VyLWNsaWVudC1zZXJ2aWNlgh0qLmNvbmZsdWVudC5z
dmMuY2x1c3Rlci5sb2NhbIIxKi5hbGVydG1hbmFnZXItY2xpZW50LmNvbmZsdWVu
dC5zdmMuY2x1c3Rlci5sb2NhbDANBgkqhkiG9w0BAQsFAAOCAgEAqjhfap5q1lfH
wI8wbDPGBhLolyUERIdRDRVR0iR3CUnv27qZ8NB+f0HY4THxmpYE0yFIaLZ0QDaW
yVC0SeCq+fGSEjN7Yk3jz7IHrJVNNfMWHDyVCCMiOjYK2wa6MTvAWOtFvHsPlpRO
dl5/9VRMe1bO04glgiTaoWHCVUjvZ/U7+9YroHM5BOyh1InNwD5I/gAjj+X0ThUC
GLCeFk1xnL7JVFlrGlq/Lqsn+0t3UtfkSFHwt7KayyASZZ0IQSOJbh2vusl+s+0q
IDtpYj4rODU/HmCRxUjvbogr2br5vXsSX3/Gwr1X38SR5LbqcTJnALxx7q80mbE/
XPfY+tCHYZGr1tVKH7K++CUFr19guH9AFsb25xVYzMxasa0UgU5v5m0JxvWTD03d
VvJtzXiNcjRa9Gv5HuV1hdWlOAlpA+RKpTb2I1sys52mKXq12NNsIiXPYFTCSdL7
cocmp2m3CXDVMwuBgQQA62uSndhiK2v4juSDYyMiIvaDS06iSf6OFXeBQbczNt3z
StYnKYIPfn8Jzfpa0rf618SO648UeatzkuoPppo5C+yQoMmSvDqFALvWSVpvqlpj
mRvLK5vT5BDlT8F88Xz6XbKv/2ZbWWl6dgV7lrnTH6h68a+lUGYjThmmHbFWuVKZ
IFsPKB0jDoMz5IebhBcdxN9KwUIkH0U=
-----END CERTIFICATE-----
