Certificate:
    Data:
        Version: 3 (0x2)
        Serial Number: 4098 (0x1002)
        Signature Algorithm: sha256WithRSAEncryption
        Issuer: CN=ca1.test.confluent.io, OU=TEST, O=CONFLUENT, L=PaloAlto, ST=Ca, C=US
        Validity
            Not Before: Sep 29 20:39:29 2025 GMT
            Not After : Jun 25 20:39:29 2028 GMT
        Subject: CN=connect,OU=TEST,O=CONFLUENT,L=PaloAlto,S=Ca,C=US
        Subject Public Key Info:
            Public Key Algorithm: rsaEncryption
                Public-Key: (4096 bit)
                Modulus:
                    00:ca:ab:f8:38:75:a2:5d:de:8d:64:09:a7:40:b1:
                    a5:ab:04:c1:5a:85:5a:90:85:cf:8d:08:34:22:e1:
                    e9:d0:34:c3:5a:13:fd:8b:61:43:a1:d2:98:7a:8d:
                    4f:27:bd:db:b6:30:ca:20:ff:66:dc:75:cc:9d:e9:
                    28:a4:94:d2:4d:b2:e0:70:e6:b1:b4:57:cc:8b:25:
                    e2:02:a4:94:87:bd:b3:9c:94:f7:9c:7f:f6:bc:88:
                    d3:be:ee:64:1c:ba:fb:88:5f:b5:ad:f3:ab:b5:e5:
                    9f:4d:d9:c4:10:e4:35:24:28:89:0f:29:47:26:4d:
                    e4:77:83:15:0b:e2:19:a7:0b:1c:e4:f5:45:fb:9c:
                    d8:af:8b:45:9e:d8:16:06:55:a8:10:0a:5a:70:71:
                    bb:fd:5d:a9:03:bb:0f:68:6f:15:42:df:27:86:d1:
                    72:1d:c2:5a:9e:84:5c:8b:b8:e7:f1:e5:9f:4a:53:
                    6c:a4:ac:a2:9c:4a:ef:3b:07:bf:fe:31:26:80:b1:
                    3c:41:ee:57:5c:3d:4e:fb:71:fd:3b:18:cf:6d:a0:
                    48:e1:a6:0a:10:a5:d4:37:69:5d:80:0e:4c:4e:0b:
                    89:30:59:20:9c:c6:fa:39:58:10:95:0c:1c:52:12:
                    b3:5a:9e:ea:3d:9c:98:d0:af:51:4a:ea:8c:24:a9:
                    b1:9d:0b:79:7d:f6:e3:f0:a8:cf:90:d7:56:42:50:
                    9a:3c:c0:48:e7:83:04:a8:62:7d:26:5e:a4:47:25:
                    8b:12:ae:2d:d1:9a:05:74:1f:f7:74:7c:4d:8e:26:
                    7f:f5:17:52:8d:b2:bf:8f:82:fd:19:19:fb:d9:56:
                    27:f5:be:25:d1:81:6c:28:9d:7f:32:74:80:1f:07:
                    8b:55:4e:01:88:89:5d:25:c4:a9:ce:de:06:5a:10:
                    38:5e:d3:a0:d1:a3:2d:a5:4c:d8:7f:05:e4:30:4e:
                    39:37:fc:f5:33:ba:45:14:26:1e:4b:16:f7:26:5d:
                    ed:93:c6:ae:34:fa:51:ca:f5:69:e5:63:a2:09:c2:
                    e5:f7:2a:d2:06:c3:61:85:ee:f6:c1:f7:2d:24:c6:
                    01:39:5f:a1:0e:1e:85:48:21:ae:34:62:dd:32:6c:
                    0c:7d:d6:fd:6c:9f:8a:ae:b7:dc:e7:1f:98:ab:f8:
                    94:d8:66:20:eb:76:14:25:4e:96:3a:b5:0b:85:f9:
                    88:2d:4d:c4:1c:7c:66:fd:e2:f1:a3:50:bc:2c:85:
                    88:50:69:05:47:91:fa:8f:01:40:da:11:6e:ba:81:
                    0c:97:09:b4:09:4f:0b:9f:03:8d:76:e1:28:bd:fe:
                    a5:9f:b8:35:a5:d2:3e:02:e9:25:cc:e6:40:e2:9b:
                    2f:c8:0d
                Exponent: 65537 (0x10001)
        X509v3 extensions:
            X509v3 Subject Key Identifier: 
                97:85:FE:E7:2A:8B:74:D2:E8:7A:0E:6C:E5:0D:1D:B5:DE:1F:7F:E1
            X509v3 Authority Key Identifier: 
                8F:24:7C:F7:E7:69:51:B8:58:00:F3:A8:9D:A0:47:70:CD:04:83:CA
            X509v3 Basic Constraints: 
                CA:FALSE
            X509v3 Key Usage: 
                Digital Signature, Key Encipherment
            X509v3 Extended Key Usage: 
                TLS Web Server Authentication, TLS Web Client Authentication
            X509v3 Subject Alternative Name: 
                DNS:connect, DNS:connect.confluent.svc.cluster.local, DNS:connect-service, DNS:*.confluent.svc.cluster.local, DNS:*.connect.confluent.svc.cluster.local
    Signature Algorithm: sha256WithRSAEncryption
    Signature Value:
        56:b0:ac:9a:84:07:97:1f:a4:79:7b:19:60:1f:d8:9b:08:39:
        1b:ee:45:a2:99:ff:30:4f:3b:fb:3b:3f:9a:f9:7b:eb:e2:c3:
        35:7b:92:12:14:8b:25:1f:ff:22:43:34:be:fa:89:25:5b:11:
        df:c5:1a:b6:81:f7:08:15:ca:32:7d:c5:c4:88:01:67:2e:93:
        a5:7c:da:85:2a:24:93:6a:3a:c2:64:82:2f:2e:7f:e3:a1:45:
        27:01:a8:b9:41:3b:72:d4:fc:2a:76:45:e6:64:d2:21:07:d5:
        bd:9f:1a:dd:d0:f4:e0:25:14:1e:76:9e:28:af:d0:1b:f7:7e:
        c5:8c:37:15:f5:78:78:a6:b3:05:d4:89:27:93:d2:e4:ae:9e:
        ff:4a:82:4f:17:ce:38:ef:d6:fa:da:27:da:28:8f:41:f4:39:
        0e:f9:4a:0e:ca:75:04:aa:c9:3f:dc:36:f5:13:06:8f:af:18:
        59:76:30:99:95:0b:bb:8d:52:9e:36:33:62:5a:99:29:d2:d5:
        2f:4f:02:6f:6b:d1:63:e5:7b:45:39:25:ec:b4:9e:7e:5c:cd:
        6d:c3:c7:6b:7a:cd:60:9c:03:95:3f:b4:6d:f7:6f:2d:aa:5e:
        85:dd:d4:c8:04:5f:7d:5b:ed:6f:d1:b9:46:8a:30:34:98:24:
        16:62:ac:76:0b:7f:2d:b8:86:41:95:51:1f:79:d3:47:d0:09:
        cd:e3:d8:99:5b:4b:c9:2e:49:b8:69:df:14:28:bf:d6:c1:15:
        fd:79:e2:4d:ed:39:96:d0:42:38:2e:64:a9:c1:01:28:11:d3:
        0a:a5:7e:05:a7:3a:44:3b:52:c8:ef:94:95:ae:8d:ba:d1:ec:
        8e:d2:8c:f4:4a:a1:3c:f0:e6:c6:3a:a3:40:2c:6e:ff:6c:67:
        3d:92:ab:3a:46:ab:76:80:0d:0e:1d:ed:26:07:f7:b0:09:59:
        6b:d7:e0:38:3c:50:55:82:81:a9:c7:92:82:b5:f8:f8:18:24:
        9e:20:e9:ab:a4:af:0c:e3:e8:af:b1:32:50:7b:d0:87:32:f7:
        a1:6a:31:a4:73:b4:59:62:0e:82:92:1f:3b:1e:f4:06:64:49:
        5e:ff:c3:65:e1:3e:ca:59:2e:11:ca:40:69:b4:a8:4a:e7:bb:
        ef:b0:75:94:41:a1:46:0b:4c:6b:04:35:3a:8e:5e:89:b9:d0:
        ad:98:72:97:14:5b:5c:93:ca:95:71:fe:c4:3f:fe:7d:37:74:
        03:f8:e0:6b:47:97:68:e5:fe:ad:67:79:2a:f3:0d:e9:db:ed:
        7b:e8:d2:86:67:5a:2d:95:f3:04:3e:2d:cc:ba:b8:91:04:58:
        b3:ec:1a:c6:ea:5c:de:8d
-----BEGIN CERTIFICATE-----
MIIGNzCCBB+gAwIBAgICEAIwDQYJKoZIhvcNAQELBQAwcDEeMBwGA1UEAwwVY2Ex
LnRlc3QuY29uZmx1ZW50LmlvMQ0wCwYDVQQLDARURVNUMRIwEAYDVQQKDAlDT05G
TFVFTlQxETAPBgNVBAcMCFBhbG9BbHRvMQswCQYDVQQIDAJDYTELMAkGA1UEBhMC
VVMwHhcNMjUwOTI5MjAzOTI5WhcNMjgwNjI1MjAzOTI5WjA7MTkwNwYDVQQDDDBj
b25uZWN0LE9VPVRFU1QsTz1DT05GTFVFTlQsTD1QYWxvQWx0byxTPUNhLEM9VVMw
ggIiMA0GCSqGSIb3DQEBAQUAA4ICDwAwggIKAoICAQDKq/g4daJd3o1kCadAsaWr
BMFahVqQhc+NCDQi4enQNMNaE/2LYUOh0ph6jU8nvdu2MMog/2bcdcyd6SiklNJN
suBw5rG0V8yLJeICpJSHvbOclPecf/a8iNO+7mQcuvuIX7Wt86u15Z9N2cQQ5DUk
KIkPKUcmTeR3gxUL4hmnCxzk9UX7nNivi0We2BYGVagQClpwcbv9XakDuw9obxVC
3yeG0XIdwlqehFyLuOfx5Z9KU2ykrKKcSu87B7/+MSaAsTxB7ldcPU77cf07GM9t
oEjhpgoQpdQ3aV2ADkxOC4kwWSCcxvo5WBCVDBxSErNanuo9nJjQr1FK6owkqbGd
C3l99uPwqM+Q11ZCUJo8wEjngwSoYn0mXqRHJYsSri3RmgV0H/d0fE2OJn/1F1KN
sr+Pgv0ZGfvZVif1viXRgWwonX8ydIAfB4tVTgGIiV0lxKnO3gZaEDhe06DRoy2l
TNh/BeQwTjk3/PUzukUUJh5LFvcmXe2Txq40+lHK9WnlY6IJwuX3KtIGw2GF7vbB
9y0kxgE5X6EOHoVIIa40Yt0ybAx91v1sn4qut9znH5ir+JTYZiDrdhQlTpY6tQuF
+YgtTcQcfGb94vGjULwshYhQaQVHkfqPAUDaEW66gQyXCbQJTwufA4124Si9/qWf
uDWl0j4C6SXM5kDimy/IDQIDAQABo4IBDjCCAQowHQYDVR0OBBYEFJeF/ucqi3TS
6HoObOUNHbXeH3/hMB8GA1UdIwQYMBaAFI8kfPfnaVG4WADzqJ2gR3DNBIPKMAkG
A1UdEwQCMAAwCwYDVR0PBAQDAgWgMB0GA1UdJQQWMBQGCCsGAQUFBwMBBggrBgEF
BQcDAjCBkAYDVR0RBIGIMIGFggdjb25uZWN0giNjb25uZWN0LmNvbmZsdWVudC5z
dmMuY2x1c3Rlci5sb2NhbIIPY29ubmVjdC1zZXJ2aWNlgh0qLmNvbmZsdWVudC5z
dmMuY2x1c3Rlci5sb2NhbIIlKi5jb25uZWN0LmNvbmZsdWVudC5zdmMuY2x1c3Rl
ci5sb2NhbDANBgkqhkiG9w0BAQsFAAOCAgEAVrCsmoQHlx+keXsZYB/Ymwg5G+5F
opn/ME87+zs/mvl76+LDNXuSEhSLJR//IkM0vvqJJVsR38UatoH3CBXKMn3FxIgB
Zy6TpXzahSokk2o6wmSCLy5/46FFJwGouUE7ctT8KnZF5mTSIQfVvZ8a3dD04CUU
HnaeKK/QG/d+xYw3FfV4eKazBdSJJ5PS5K6e/0qCTxfOOO/W+ton2iiPQfQ5DvlK
Dsp1BKrJP9w29RMGj68YWXYwmZULu41SnjYzYlqZKdLVL08Cb2vRY+V7RTkl7LSe
flzNbcPHa3rNYJwDlT+0bfdvLapehd3UyARffVvtb9G5RoowNJgkFmKsdgt/LbiG
QZVRH3nTR9AJzePYmVtLyS5JuGnfFCi/1sEV/XniTe05ltBCOC5kqcEBKBHTCqV+
Bac6RDtSyO+Ula6NutHsjtKM9EqhPPDmxjqjQCxu/2xnPZKrOkardoANDh3tJgf3
sAlZa9fgODxQVYKBqceSgrX4+BgkniDpq6SvDOPor7EyUHvQhzL3oWoxpHO0WWIO
gpIfOx70BmRJXv/DZeE+ylkuEcpAabSoSue777B1lEGhRgtMawQ1Oo5eibnQrZhy
lxRbXJPKlXH+xD/+fTd0A/jga0eXaOX+rWd5KvMN6dvte+jShmdaLZXzBD4tzLq4
kQRYs+waxupc3o0=
-----END CERTIFICATE-----
