Certificate:
    Data:
        Version: 3 (0x2)
        Serial Number: 4101 (0x1005)
        Signature Algorithm: sha256WithRSAEncryption
        Issuer: CN=ca1.test.confluent.io, OU=TEST, O=CONFLUENT, L=PaloAlto, ST=Ca, C=US
        Validity
            Not Before: Sep 29 20:39:34 2025 GMT
            Not After : Jun 25 20:39:34 2028 GMT
        Subject: CN=krp,OU=TEST,O=CONFLUENT,L=PaloAlto,S=Ca,C=US
        Subject Public Key Info:
            Public Key Algorithm: rsaEncryption
                Public-Key: (4096 bit)
                Modulus:
                    00:ba:e9:63:90:ab:e9:d7:71:cf:e9:82:b2:7f:18:
                    65:c6:fc:39:c4:35:49:ed:fd:2f:cc:48:e2:43:b1:
                    71:75:8a:68:a2:68:e0:1c:07:76:ed:d5:6d:93:6c:
                    32:1c:7a:5e:b2:b0:a4:0f:db:de:d6:15:59:66:66:
                    48:1e:65:b4:af:96:19:c4:6c:5e:2e:de:a5:a1:4f:
                    8b:14:b8:63:06:e4:56:c6:90:e0:df:79:d9:3a:5f:
                    62:36:b1:93:0c:33:97:3a:2d:70:cc:92:22:40:f7:
                    65:17:ff:2a:86:58:1e:c1:51:02:9e:9b:86:c3:17:
                    4d:25:fe:79:18:f8:1d:65:aa:48:48:44:9c:fe:79:
                    7d:9e:02:e8:58:2d:50:d1:cd:0d:42:ef:3b:97:03:
                    42:57:24:ce:aa:45:28:eb:00:b6:73:f2:ce:bd:f8:
                    02:80:79:25:a6:ac:09:ff:57:07:79:70:77:d6:f7:
                    19:24:17:24:a5:77:58:0d:7e:d3:fe:b0:35:a4:1b:
                    af:ad:80:19:58:1a:69:2d:2a:5e:f3:e2:76:6b:de:
                    cf:84:c4:a8:7b:15:b8:66:53:fa:ca:2a:74:92:95:
                    d9:d3:20:4f:ae:61:f8:f5:88:e7:6f:31:d0:db:c2:
                    5b:67:60:c0:15:60:46:bd:bb:ec:ba:43:aa:05:e0:
                    dc:c7:9d:a0:bf:80:f5:e5:97:d1:88:42:23:8b:f6:
                    a7:f8:21:6a:f4:78:3b:97:e2:8b:23:f8:08:b3:fb:
                    b6:bb:2f:b0:ac:33:9b:2f:76:d5:3a:3e:69:71:78:
                    24:f0:4c:1f:a8:64:0c:ad:87:bf:2a:b8:48:17:a7:
                    76:48:4d:4d:15:d5:03:89:92:06:b0:c8:62:89:8e:
                    b4:3f:b2:28:7c:30:31:d7:53:ac:6f:2b:24:96:61:
                    31:a6:f8:fd:a0:a0:09:50:4c:e6:45:18:0e:24:07:
                    c8:dd:cc:bc:9b:f3:bd:b1:20:1e:09:40:80:46:3c:
                    54:9a:75:56:8f:3b:1c:ef:95:2b:cf:81:39:06:bb:
                    9b:05:51:51:c5:96:68:4c:47:49:0c:04:93:67:90:
                    c4:94:32:ec:d3:72:4a:1c:95:4a:8c:93:9d:bb:c7:
                    6e:a3:8b:1b:7f:84:62:59:3c:d5:60:40:24:c5:86:
                    44:4d:79:ce:05:24:cb:1a:e0:dd:bb:04:24:81:f9:
                    b8:00:4a:96:71:42:d6:aa:73:e8:cb:a2:0c:da:5f:
                    de:94:fa:19:86:80:0a:a2:cd:4b:6d:ee:d1:82:1f:
                    29:7e:ad:b4:60:fc:f5:56:ad:bc:66:29:5e:67:23:
                    65:0b:90:64:e5:14:36:3f:1e:4f:9a:d8:2e:6c:cf:
                    5b:6a:a1
                Exponent: 65537 (0x10001)
        X509v3 extensions:
            X509v3 Subject Key Identifier: 
                27:73:9D:DF:35:3D:D5:41:08:E0:DD:81:70:2D:AA:36:8F:56:B0:DF
            X509v3 Authority Key Identifier: 
                8F:24:7C:F7:E7:69:51:B8:58:00:F3:A8:9D:A0:47:70:CD:04:83:CA
            X509v3 Basic Constraints: 
                CA:FALSE
            X509v3 Key Usage: 
                Digital Signature, Key Encipherment
            X509v3 Extended Key Usage: 
                TLS Web Server Authentication, TLS Web Client Authentication
            X509v3 Subject Alternative Name: 
                DNS:krp, DNS:krp.confluent.svc.cluster.local, DNS:krp-service, DNS:*.confluent.svc.cluster.local, DNS:*.krp.confluent.svc.cluster.local
    Signature Algorithm: sha256WithRSAEncryption
    Signature Value:
        09:61:6f:bf:d1:3c:9c:a4:79:52:16:9d:b1:40:96:c2:6a:64:
        3e:48:29:ee:31:cf:37:c5:31:90:f9:7f:e8:ab:5d:0e:44:d8:
        f5:b9:c6:c1:0d:57:a5:34:a3:dd:30:bf:3b:de:8b:a4:18:de:
        18:78:ae:c3:c2:70:cb:d5:f4:09:ec:94:c8:0a:6a:c6:f0:96:
        3c:7c:07:48:70:0f:21:b7:af:b7:9a:3f:7a:7f:a7:ab:92:4a:
        b3:8b:e6:00:f2:da:d6:fe:be:3c:d7:16:20:88:56:bd:c7:8a:
        08:72:f6:b1:3c:3c:cb:98:3e:ae:2b:e6:cd:8a:44:c7:42:79:
        8d:89:52:06:82:28:21:b4:8e:d8:cd:24:17:f4:78:48:a8:0d:
        ed:68:2f:49:f7:bf:a2:06:51:cb:15:23:de:ce:67:f7:5d:7d:
        c3:e0:44:92:5b:d8:8d:49:d2:32:96:47:34:c9:64:9e:fc:82:
        c1:09:50:56:ed:f7:be:91:41:8d:0f:88:58:e6:b9:96:ec:03:
        ff:11:8c:21:4b:a0:45:a0:29:64:c1:46:0e:24:17:ed:7f:c9:
        19:77:04:4f:da:01:55:8e:c0:51:c3:32:f9:b7:68:36:2d:72:
        18:8e:5d:d8:6a:30:e7:6e:59:1b:88:ca:ea:28:6c:41:7b:14:
        29:ab:d5:f4:1d:da:6c:8e:44:49:ea:47:8a:7a:0b:85:6c:99:
        31:88:e1:84:c5:ef:cb:60:8f:e5:ba:47:22:96:2e:49:73:9b:
        95:cb:90:ae:b3:1e:3c:c4:83:f9:6e:7c:4b:30:d3:6b:00:d7:
        f6:2b:16:f8:fc:9e:67:b4:d1:8d:53:9d:53:ca:d3:0e:24:e6:
        e1:5f:1e:14:0c:56:c9:46:f4:3e:90:d2:91:52:32:10:74:51:
        39:fd:b1:7c:df:87:92:53:ba:4a:d0:bc:96:f1:2b:9d:48:38:
        a0:79:62:aa:14:be:c6:5f:c4:8f:b8:a0:34:9c:97:2f:20:2e:
        f4:a9:92:89:f2:d3:e0:34:c2:cb:c5:46:e6:91:aa:ac:74:ba:
        66:1e:15:e2:45:8a:d6:1f:1b:ee:17:39:a3:46:53:ab:0c:a8:
        91:9d:93:2c:5e:c9:b6:2c:46:33:8a:43:65:d6:46:f4:b3:6e:
        f7:cf:6b:e2:75:49:28:a4:12:12:a3:4d:de:11:c6:4b:55:2e:
        3d:8c:62:c2:b8:d0:59:dc:fc:38:bc:f5:8a:95:ec:df:71:a3:
        41:df:8f:e9:eb:63:5c:36:99:e4:04:18:2d:aa:10:ee:89:7a:
        7a:86:e7:d9:fd:44:38:73:27:fa:52:c1:23:5e:48:50:96:0d:
        76:9e:2a:30:cb:83:a9:c6
-----BEGIN CERTIFICATE-----
MIIGHjCCBAagAwIBAgICEAUwDQYJKoZIhvcNAQELBQAwcDEeMBwGA1UEAwwVY2Ex
LnRlc3QuY29uZmx1ZW50LmlvMQ0wCwYDVQQLDARURVNUMRIwEAYDVQQKDAlDT05G
TFVFTlQxETAPBgNVBAcMCFBhbG9BbHRvMQswCQYDVQQIDAJDYTELMAkGA1UEBhMC
VVMwHhcNMjUwOTI5MjAzOTM0WhcNMjgwNjI1MjAzOTM0WjA3MTUwMwYDVQQDDCxr
cnAsT1U9VEVTVCxPPUNPTkZMVUVOVCxMPVBhbG9BbHRvLFM9Q2EsQz1VUzCCAiIw
DQYJKoZIhvcNAQEBBQADggIPADCCAgoCggIBALrpY5Cr6ddxz+mCsn8YZcb8OcQ1
Se39L8xI4kOxcXWKaKJo4BwHdu3VbZNsMhx6XrKwpA/b3tYVWWZmSB5ltK+WGcRs
Xi7epaFPixS4YwbkVsaQ4N952TpfYjaxkwwzlzotcMySIkD3ZRf/KoZYHsFRAp6b
hsMXTSX+eRj4HWWqSEhEnP55fZ4C6FgtUNHNDULvO5cDQlckzqpFKOsAtnPyzr34
AoB5JaasCf9XB3lwd9b3GSQXJKV3WA1+0/6wNaQbr62AGVgaaS0qXvPidmvez4TE
qHsVuGZT+soqdJKV2dMgT65h+PWI528x0NvCW2dgwBVgRr277LpDqgXg3MedoL+A
9eWX0YhCI4v2p/ghavR4O5fiiyP4CLP7trsvsKwzmy921To+aXF4JPBMH6hkDK2H
vyq4SBendkhNTRXVA4mSBrDIYomOtD+yKHwwMddTrG8rJJZhMab4/aCgCVBM5kUY
DiQHyN3MvJvzvbEgHglAgEY8VJp1Vo87HO+VK8+BOQa7mwVRUcWWaExHSQwEk2eQ
xJQy7NNyShyVSoyTnbvHbqOLG3+EYlk81WBAJMWGRE15zgUkyxrg3bsEJIH5uABK
lnFC1qpz6MuiDNpf3pT6GYaACqLNS23u0YIfKX6ttGD89VatvGYpXmcjZQuQZOUU
Nj8eT5rYLmzPW2qhAgMBAAGjgfowgfcwHQYDVR0OBBYEFCdznd81PdVBCODdgXAt
qjaPVrDfMB8GA1UdIwQYMBaAFI8kfPfnaVG4WADzqJ2gR3DNBIPKMAkGA1UdEwQC
MAAwCwYDVR0PBAQDAgWgMB0GA1UdJQQWMBQGCCsGAQUFBwMBBggrBgEFBQcDAjB+
BgNVHREEdzB1ggNrcnCCH2tycC5jb25mbHVlbnQuc3ZjLmNsdXN0ZXIubG9jYWyC
C2tycC1zZXJ2aWNlgh0qLmNvbmZsdWVudC5zdmMuY2x1c3Rlci5sb2NhbIIhKi5r
cnAuY29uZmx1ZW50LnN2Yy5jbHVzdGVyLmxvY2FsMA0GCSqGSIb3DQEBCwUAA4IC
AQAJYW+/0TycpHlSFp2xQJbCamQ+SCnuMc83xTGQ+X/oq10ORNj1ucbBDVelNKPd
ML873oukGN4YeK7DwnDL1fQJ7JTICmrG8JY8fAdIcA8ht6+3mj96f6erkkqzi+YA
8trW/r481xYgiFa9x4oIcvaxPDzLmD6uK+bNikTHQnmNiVIGgightI7YzSQX9HhI
qA3taC9J97+iBlHLFSPezmf3XX3D4ESSW9iNSdIylkc0yWSe/ILBCVBW7fe+kUGN
D4hY5rmW7AP/EYwhS6BFoClkwUYOJBftf8kZdwRP2gFVjsBRwzL5t2g2LXIYjl3Y
ajDnblkbiMrqKGxBexQpq9X0HdpsjkRJ6keKeguFbJkxiOGExe/LYI/lukcili5J
c5uVy5Cusx48xIP5bnxLMNNrANf2Kxb4/J5ntNGNU51TytMOJObhXx4UDFbJRvQ+
kNKRUjIQdFE5/bF834eSU7pK0LyW8SudSDigeWKqFL7GX8SPuKA0nJcvIC70qZKJ
8tPgNMLLxUbmkaqsdLpmHhXiRYrWHxvuFzmjRlOrDKiRnZMsXsm2LEYzikNl1kb0
s273z2vidUkopBISo03eEcZLVS49jGLCuNBZ3Pw4vPWKlezfcaNB34/p62NcNpnk
BBgtqhDuiXp6hufZ/UQ4cyf6UsEjXkhQlg12niowy4Opxg==
-----END CERTIFICATE-----
