Certificate:
    Data:
        Version: 3 (0x2)
        Serial Number: 4103 (0x1007)
        Signature Algorithm: sha256WithRSAEncryption
        Issuer: CN=ca1.test.confluent.io, OU=TEST, O=CONFLUENT, L=PaloAlto, ST=Ca, C=US
        Validity
            Not Before: Sep 29 20:39:37 2025 GMT
            Not After : Jun 25 20:39:37 2028 GMT
        Subject: CN=prometheus-client,OU=TEST,O=CONFLUENT,L=PaloAlto,S=Ca,C=US
        Subject Public Key Info:
            Public Key Algorithm: rsaEncryption
                Public-Key: (4096 bit)
                Modulus:
                    00:bf:58:61:0e:f6:26:da:bb:b7:f0:d6:37:e5:0d:
                    0a:10:25:14:ce:ac:56:75:34:94:6b:01:45:a2:d7:
                    9e:d9:5d:b3:7f:2d:b4:af:e9:1d:7c:a1:f9:57:2d:
                    41:50:df:c8:66:c5:70:3d:7d:ea:5f:c4:ca:8e:e6:
                    1c:8f:6d:3f:bd:46:a1:36:d8:a2:8f:98:62:f9:06:
                    d1:83:35:de:41:9c:df:69:70:05:83:f4:03:eb:ce:
                    d5:28:47:11:65:22:7c:d7:be:30:db:c1:93:ec:63:
                    4a:d3:b5:c3:cc:c1:84:7a:9e:5c:c8:eb:ff:c9:11:
                    14:7e:f4:f5:aa:3f:fe:88:71:63:4c:03:6c:24:9d:
                    d5:53:3c:d3:1c:e4:d0:86:41:60:0f:61:87:f6:49:
                    9a:fe:8a:01:08:65:86:bd:cb:cd:b2:b6:d4:f5:ed:
                    61:89:3a:4c:2b:68:0e:90:f5:31:dd:58:b5:7d:7b:
                    57:cd:67:e6:cf:bc:21:85:6e:8e:3f:f0:b4:69:bf:
                    82:5a:03:33:6a:01:ee:9b:23:2b:b6:b3:c7:5a:38:
                    9b:f8:85:a1:6a:fc:eb:20:75:52:1d:9f:39:dc:d6:
                    7c:6d:89:1c:36:2d:b6:78:eb:f6:47:72:35:90:46:
                    34:d8:16:00:19:f3:f7:31:b8:29:1c:11:56:b0:48:
                    0a:11:51:aa:d0:7a:3d:77:6b:02:35:f3:a3:2b:46:
                    b5:b0:db:fc:a3:6f:0c:57:1e:8e:56:28:ce:ad:4d:
                    eb:99:55:a0:3d:d5:e0:4c:ce:7e:6e:f8:f5:cf:c4:
                    4a:90:85:95:23:73:a8:63:50:dc:68:28:9a:e0:f6:
                    94:97:81:66:01:23:f5:b9:17:de:ad:cd:54:b1:91:
                    17:d5:c5:3d:5f:92:34:c3:20:61:04:39:6b:92:75:
                    62:80:5f:9e:8a:5b:8a:64:09:13:68:c4:8b:ed:fa:
                    a1:c2:7d:05:fe:f6:d7:af:48:c7:69:ff:d0:b8:8a:
                    8d:af:d7:e1:f8:5f:8b:c1:ca:80:f4:d5:a0:dc:17:
                    f8:94:00:3b:c2:6b:46:c1:49:8d:7d:3f:77:43:75:
                    db:4c:c3:6a:e4:d4:f6:bd:53:c1:5a:8e:f5:bf:5e:
                    44:3f:e5:16:63:f9:10:bc:00:7c:41:83:90:f9:a9:
                    8a:82:de:d5:94:04:58:51:66:df:f4:ef:73:b1:8a:
                    f1:13:bc:94:ec:85:75:8b:11:d4:68:0c:90:a8:e5:
                    9b:bf:2a:92:12:d7:8c:71:b2:26:77:df:5d:5d:b7:
                    f7:c8:d6:bb:e2:59:29:0f:43:10:d7:40:6a:fb:37:
                    92:b2:de:01:f7:6f:5f:4b:9b:9a:87:86:b4:ba:1b:
                    b4:00:45
                Exponent: 65537 (0x10001)
        X509v3 extensions:
            X509v3 Subject Key Identifier: 
                02:CA:55:AF:61:E2:20:D4:F9:A1:85:03:AD:D3:A5:4F:8F:84:BD:5C
            X509v3 Authority Key Identifier: 
                8F:24:7C:F7:E7:69:51:B8:58:00:F3:A8:9D:A0:47:70:CD:04:83:CA
            X509v3 Basic Constraints: 
                CA:FALSE
            X509v3 Key Usage: 
                Digital Signature, Key Encipherment
            X509v3 Extended Key Usage: 
                TLS Web Server Authentication, TLS Web Client Authentication
            X509v3 Subject Alternative Name: 
                DNS:prometheus-client, DNS:prometheus-client.confluent.svc.cluster.local, DNS:prometheus-client-service, DNS:*.confluent.svc.cluster.local, DNS:*.prometheus-client.confluent.svc.cluster.local
    Signature Algorithm: sha256WithRSAEncryption
    Signature Value:
        44:16:97:0b:d7:7f:0d:32:b4:a1:e1:81:5b:a9:79:27:79:ec:
        ea:4f:bc:78:29:fa:81:02:4b:70:5e:59:ee:a1:7b:93:bf:51:
        fb:b8:cf:65:22:5a:ff:73:54:76:80:a8:fe:dd:81:d0:1c:07:
        78:13:a1:e9:00:06:d1:23:68:1e:cf:ba:e3:90:22:51:42:f4:
        aa:e8:9a:5c:5c:b9:5b:b8:90:06:35:3f:ab:fc:cf:72:b8:4f:
        08:c9:b1:31:27:95:d2:ee:5d:40:92:03:23:b3:70:a0:c2:71:
        03:7f:a7:b5:b6:67:da:64:44:cc:27:56:13:5c:7a:a2:ad:3a:
        90:79:96:37:b7:fc:77:93:ff:cd:8a:ba:2d:40:2b:70:07:76:
        98:3f:1d:88:1a:70:fc:24:84:97:fd:28:6c:25:52:e1:42:71:
        22:dd:6d:c3:68:6b:0d:7d:7b:1d:7c:8a:bc:8e:6a:06:d5:3e:
        d6:40:ec:a6:2f:57:dd:24:ea:11:9e:50:9c:3a:cc:f2:74:2f:
        3f:7f:a8:89:b5:ac:85:95:59:76:d0:fa:7f:c8:42:0e:e1:f6:
        af:7d:5b:40:63:5a:6f:33:08:7e:40:fc:6e:94:db:4a:cb:ab:
        04:be:e9:51:75:78:d5:a4:66:ce:b7:f7:53:5a:91:76:37:ef:
        cb:80:2e:33:21:c0:5d:c1:5b:18:00:88:bb:d0:21:67:2d:a9:
        c5:fc:c6:5f:ab:32:7d:18:19:2d:86:71:b2:c4:94:a7:42:bb:
        22:80:56:69:db:00:b4:da:31:df:2c:7c:e3:9e:da:88:8f:fa:
        27:98:06:e1:4e:d5:c8:27:14:bf:6e:2c:5d:ca:bb:d7:4c:b3:
        2d:3b:21:a2:73:b8:dd:c8:5c:79:20:7c:62:40:22:0e:71:94:
        27:42:74:a9:21:09:92:5f:f8:02:6d:ac:d9:54:92:f6:b0:21:
        7a:63:49:56:06:50:8b:d2:6d:73:97:19:99:69:ff:ed:63:6e:
        65:72:00:ff:c1:5d:e7:ee:ed:d2:74:31:a5:e9:ed:63:69:2b:
        12:0e:ad:92:24:97:76:86:ed:e2:7e:b2:70:c4:b6:96:bc:18:
        91:5f:16:59:8f:a6:72:88:3d:6f:af:aa:35:0a:16:b1:63:37:
        f8:3a:f1:7f:7b:6d:fc:e0:7f:62:66:b5:16:4f:f3:8b:89:97:
        30:c4:99:2a:3c:70:37:e1:24:ea:95:be:77:4a:a5:aa:8d:d4:
        58:75:5b:74:68:c3:01:c4:fb:53:54:ea:df:0c:d8:54:50:de:
        80:a3:c0:29:5d:e9:4f:1f:c0:30:de:1b:ad:4e:1b:5e:0e:2f:
        c8:26:72:58:5f:ef:58:5a
-----BEGIN CERTIFICATE-----
MIIGaTCCBFGgAwIBAgICEAcwDQYJKoZIhvcNAQELBQAwcDEeMBwGA1UEAwwVY2Ex
LnRlc3QuY29uZmx1ZW50LmlvMQ0wCwYDVQQLDARURVNUMRIwEAYDVQQKDAlDT05G
TFVFTlQxETAPBgNVBAcMCFBhbG9BbHRvMQswCQYDVQQIDAJDYTELMAkGA1UEBhMC
VVMwHhcNMjUwOTI5MjAzOTM3WhcNMjgwNjI1MjAzOTM3WjBFMUMwQQYDVQQDDDpw
cm9tZXRoZXVzLWNsaWVudCxPVT1URVNULE89Q09ORkxVRU5ULEw9UGFsb0FsdG8s
Uz1DYSxDPVVTMIICIjANBgkqhkiG9w0BAQEFAAOCAg8AMIICCgKCAgEAv1hhDvYm
2ru38NY35Q0KECUUzqxWdTSUawFFotee2V2zfy20r+kdfKH5Vy1BUN/IZsVwPX3q
X8TKjuYcj20/vUahNtiij5hi+QbRgzXeQZzfaXAFg/QD687VKEcRZSJ8174w28GT
7GNK07XDzMGEep5cyOv/yREUfvT1qj/+iHFjTANsJJ3VUzzTHOTQhkFgD2GH9kma
/ooBCGWGvcvNsrbU9e1hiTpMK2gOkPUx3Vi1fXtXzWfmz7whhW6OP/C0ab+CWgMz
agHumyMrtrPHWjib+IWhavzrIHVSHZ853NZ8bYkcNi22eOv2R3I1kEY02BYAGfP3
MbgpHBFWsEgKEVGq0Ho9d2sCNfOjK0a1sNv8o28MVx6OVijOrU3rmVWgPdXgTM5+
bvj1z8RKkIWVI3OoY1DcaCia4PaUl4FmASP1uRferc1UsZEX1cU9X5I0wyBhBDlr
knVigF+eiluKZAkTaMSL7fqhwn0F/vbXr0jHaf/QuIqNr9fh+F+LwcqA9NWg3Bf4
lAA7wmtGwUmNfT93Q3XbTMNq5NT2vVPBWo71v15EP+UWY/kQvAB8QYOQ+amKgt7V
lARYUWbf9O9zsYrxE7yU7IV1ixHUaAyQqOWbvyqSEteMcbImd99dXbf3yNa74lkp
D0MQ10Bq+zeSst4B929fS5uah4a0uhu0AEUCAwEAAaOCATYwggEyMB0GA1UdDgQW
BBQCylWvYeIg1PmhhQOt06VPj4S9XDAfBgNVHSMEGDAWgBSPJHz352lRuFgA86id
oEdwzQSDyjAJBgNVHRMEAjAAMAsGA1UdDwQEAwIFoDAdBgNVHSUEFjAUBggrBgEF
BQcDAQYIKwYBBQUHAwIwgbgGA1UdEQSBsDCBrYIRcHJvbWV0aGV1cy1jbGllbnSC
LXByb21ldGhldXMtY2xpZW50LmNvbmZsdWVudC5zdmMuY2x1c3Rlci5sb2NhbIIZ
cHJvbWV0aGV1cy1jbGllbnQtc2VydmljZYIdKi5jb25mbHVlbnQuc3ZjLmNsdXN0
ZXIubG9jYWyCLyoucHJvbWV0aGV1cy1jbGllbnQuY29uZmx1ZW50LnN2Yy5jbHVz
dGVyLmxvY2FsMA0GCSqGSIb3DQEBCwUAA4ICAQBEFpcL138NMrSh4YFbqXkneezq
T7x4KfqBAktwXlnuoXuTv1H7uM9lIlr/c1R2gKj+3YHQHAd4E6HpAAbRI2gez7rj
kCJRQvSq6JpcXLlbuJAGNT+r/M9yuE8IybExJ5XS7l1AkgMjs3CgwnEDf6e1tmfa
ZETMJ1YTXHqirTqQeZY3t/x3k//NirotQCtwB3aYPx2IGnD8JISX/ShsJVLhQnEi
3W3DaGsNfXsdfIq8jmoG1T7WQOymL1fdJOoRnlCcOszydC8/f6iJtayFlVl20Pp/
yEIO4favfVtAY1pvMwh+QPxulNtKy6sEvulRdXjVpGbOt/dTWpF2N+/LgC4zIcBd
wVsYAIi70CFnLanF/MZfqzJ9GBkthnGyxJSnQrsigFZp2wC02jHfLHzjntqIj/on
mAbhTtXIJxS/bixdyrvXTLMtOyGic7jdyFx5IHxiQCIOcZQnQnSpIQmSX/gCbazZ
VJL2sCF6Y0lWBlCL0m1zlxmZaf/tY25lcgD/wV3n7u3SdDGl6e1jaSsSDq2SJJd2
hu3ifrJwxLaWvBiRXxZZj6ZyiD1vr6o1ChaxYzf4OvF/e2384H9iZrUWT/OLiZcw
xJkqPHA34STqlb53SqWqjdRYdVt0aMMBxPtTVOrfDNhUUN6Ao8ApXelPH8Aw3hut
ThteDi/IJnJYX+9YWg==
-----END CERTIFICATE-----
