Certificate:
    Data:
        Version: 3 (0x2)
        Serial Number: 4107 (0x100b)
        Signature Algorithm: sha256WithRSAEncryption
        Issuer: CN=ca1.test.confluent.io, OU=TEST, O=CONFLUENT, L=PaloAlto, ST=Ca, C=US
        Validity
            Not Before: Sep 29 20:39:41 2025 GMT
            Not After : Jun 25 20:39:41 2028 GMT
        Subject: CN=controlcenter-ng,OU=TEST,O=CONFLUENT,L=PaloAlto,S=Ca,C=US
        Subject Public Key Info:
            Public Key Algorithm: rsaEncryption
                Public-Key: (4096 bit)
                Modulus:
                    00:a6:bf:58:86:70:a2:e2:7a:c9:87:72:cb:2d:2e:
                    6c:1b:15:30:61:3d:72:59:bc:3f:44:c9:64:9d:07:
                    c1:e8:be:63:fd:0e:e8:36:b8:83:73:dd:e6:18:f4:
                    14:18:a1:5b:ca:59:12:49:1d:d6:d0:87:c1:fa:83:
                    4c:e8:e1:c9:e1:e9:99:d0:43:e7:55:2c:14:e6:5c:
                    fd:5b:32:3e:cc:36:34:e0:0a:15:cb:ba:ee:42:b5:
                    5b:5c:d4:02:71:0f:6d:56:e2:ac:44:e4:3a:26:48:
                    9e:70:e0:f0:71:a8:59:3d:8d:c8:af:90:53:a3:6f:
                    30:6d:d2:89:91:df:1f:ee:0d:58:3c:89:9a:ea:9c:
                    78:a3:57:46:6d:24:8c:90:7f:9e:af:03:ad:ef:0b:
                    31:56:7c:76:65:5e:0e:51:7a:12:dd:e8:2d:87:b7:
                    b3:3f:53:da:af:a0:4e:a4:9a:e7:46:7f:03:ff:93:
                    ed:cd:4f:1b:80:d4:59:8b:17:bf:19:07:92:1f:c4:
                    cc:c6:9e:9a:ec:58:83:fc:71:25:bc:23:27:71:1c:
                    06:59:65:0c:a1:f9:2d:7b:c0:93:4c:d4:4d:43:c5:
                    d9:80:f5:58:a4:e1:1e:8c:d6:c7:05:d7:5d:7a:ab:
                    ac:03:98:d8:17:d0:aa:3a:ac:e8:26:48:ed:99:ae:
                    88:bb:7f:f0:92:48:93:a2:34:4e:b0:14:a9:66:d4:
                    88:56:50:a9:22:3d:51:bc:14:2f:12:cb:15:39:28:
                    e7:74:b9:db:ef:49:8b:ec:a4:31:65:0f:44:ac:d4:
                    4e:22:6e:d7:ac:f6:e5:f8:71:54:52:80:ff:fd:69:
                    f7:bc:ba:fb:1a:9b:6e:19:16:f4:ea:7e:b1:aa:a2:
                    a8:ab:66:3d:00:ea:f9:63:b0:13:a7:18:6c:21:62:
                    43:c2:29:a1:f3:f5:f8:e4:ea:89:a5:24:e2:a7:a5:
                    05:ee:77:90:6f:0b:5a:e1:57:ca:1c:df:8f:c3:1f:
                    8c:ca:9d:cf:c1:05:b5:e8:11:90:ff:55:2e:73:2d:
                    4d:bb:4d:0e:ba:bb:78:d7:63:f2:05:a7:c0:37:84:
                    d9:85:58:ba:66:f6:10:7e:62:43:8c:2d:34:c7:f8:
                    09:30:69:f6:a8:e7:2b:cc:5a:f4:aa:a9:74:b5:b8:
                    17:d9:c3:dc:66:64:f5:cc:33:c0:f7:07:32:25:55:
                    f8:c8:ba:ce:ee:6a:9b:e1:e8:fc:5c:e2:84:5a:d8:
                    31:9c:28:ce:da:45:55:10:df:bc:98:7f:3a:94:7b:
                    29:71:99:5e:1b:27:95:aa:cf:77:d1:0d:33:e8:c5:
                    c4:0b:45:38:53:5e:57:6f:64:46:54:2f:73:aa:26:
                    e9:20:05
                Exponent: 65537 (0x10001)
        X509v3 extensions:
            X509v3 Subject Key Identifier: 
                1C:FD:A3:FF:59:A6:14:8A:EF:DB:7B:12:9A:24:78:87:E2:28:6A:8E
            X509v3 Authority Key Identifier: 
                8F:24:7C:F7:E7:69:51:B8:58:00:F3:A8:9D:A0:47:70:CD:04:83:CA
            X509v3 Basic Constraints: 
                CA:FALSE
            X509v3 Key Usage: 
                Digital Signature, Key Encipherment
            X509v3 Extended Key Usage: 
                TLS Web Server Authentication, TLS Web Client Authentication
            X509v3 Subject Alternative Name: 
                DNS:controlcenter-ng, DNS:controlcenter-ng.confluent.svc.cluster.local, DNS:controlcenter-ng-service, DNS:*.confluent.svc.cluster.local, DNS:*.controlcenter-ng.confluent.svc.cluster.local
    Signature Algorithm: sha256WithRSAEncryption
    Signature Value:
        7e:9f:48:e8:2f:7d:ea:27:47:ef:64:f7:42:87:ad:cc:89:49:
        ce:d7:69:19:ec:c6:8a:6b:ea:ee:ad:ea:ed:36:4b:4f:2a:2e:
        8e:88:b8:3f:af:91:a8:ab:d2:65:b3:2e:50:91:f6:88:69:a9:
        a6:c6:93:ee:73:ff:8d:e1:a0:2c:49:f1:a1:60:61:1d:ac:6a:
        7e:38:b1:ae:3d:66:b4:69:5b:ef:2d:db:1f:99:2e:ce:0b:ce:
        d0:07:4f:f6:cf:99:81:a5:89:47:67:99:9f:ba:b2:47:2c:05:
        fa:6e:34:4b:9b:f6:1a:70:54:e4:f9:7d:bc:82:c6:d3:ea:92:
        05:5c:32:7e:7a:42:a0:0e:d6:9e:f2:38:13:c5:5e:a2:2a:7c:
        78:12:bf:11:3c:d5:91:59:32:e7:a4:3c:e8:94:7a:2f:f0:d9:
        07:92:7c:7d:c9:1f:5a:f6:fb:3b:45:ec:58:b0:d2:f1:da:e4:
        73:4c:01:7c:20:fd:6b:d3:d2:76:76:69:73:7f:9f:ec:79:f2:
        6e:d6:e9:7f:af:98:29:be:24:ec:64:8d:4e:2d:09:20:85:40:
        64:24:5c:3e:58:f7:0e:3d:de:55:2c:41:c3:04:81:57:ec:07:
        cf:6f:a3:1b:39:fa:63:1b:3f:15:14:3e:83:b6:2e:ee:3b:be:
        d7:8f:95:d3:73:9b:3a:01:36:60:69:61:88:91:5b:4e:e3:f1:
        74:09:a0:86:51:a4:7d:1a:65:9d:8d:26:0c:25:84:2c:4a:12:
        88:e7:15:e0:1d:b3:3c:b4:0d:9e:c6:87:f9:f1:27:a9:b3:ed:
        8f:a9:40:7c:6d:8f:fa:04:e4:c8:62:ff:d5:da:dd:5b:a9:61:
        02:a0:42:8b:d1:81:dc:67:62:6a:6c:55:91:07:70:73:cb:51:
        ec:a8:b1:a4:a0:ed:83:fb:ac:dd:f0:ba:bb:2c:75:55:dd:28:
        28:d9:8b:a5:c0:a2:de:53:35:f1:04:b1:fe:61:27:c1:e2:ca:
        dc:83:46:ab:87:47:4f:1f:06:1c:5a:24:63:ec:5b:99:93:bc:
        b6:e6:81:62:eb:fc:c9:62:b7:09:a0:f2:01:7d:6a:80:e5:a7:
        b1:06:65:54:b9:a3:ed:09:dd:99:05:6f:71:f2:30:d6:20:4b:
        1c:e4:5f:7d:06:b0:fa:db:8c:e0:36:8c:55:3a:93:2c:1f:68:
        12:ad:4b:fd:17:a4:e7:f3:0a:1c:07:19:89:c5:dd:d4:9c:99:
        e8:03:e1:d8:77:7f:0f:7e:a5:81:ea:bc:8a:fc:d8:c6:cc:c9:
        b2:84:52:9a:8e:6b:bf:04:1f:ba:32:38:13:60:44:75:bf:91:
        fd:63:18:32:a2:a7:7e:e2
-----BEGIN CERTIFICATE-----
MIIGZDCCBEygAwIBAgICEAswDQYJKoZIhvcNAQELBQAwcDEeMBwGA1UEAwwVY2Ex
LnRlc3QuY29uZmx1ZW50LmlvMQ0wCwYDVQQLDARURVNUMRIwEAYDVQQKDAlDT05G
TFVFTlQxETAPBgNVBAcMCFBhbG9BbHRvMQswCQYDVQQIDAJDYTELMAkGA1UEBhMC
VVMwHhcNMjUwOTI5MjAzOTQxWhcNMjgwNjI1MjAzOTQxWjBEMUIwQAYDVQQDDDlj
b250cm9sY2VudGVyLW5nLE9VPVRFU1QsTz1DT05GTFVFTlQsTD1QYWxvQWx0byxT
PUNhLEM9VVMwggIiMA0GCSqGSIb3DQEBAQUAA4ICDwAwggIKAoICAQCmv1iGcKLi
esmHcsstLmwbFTBhPXJZvD9EyWSdB8HovmP9Dug2uINz3eYY9BQYoVvKWRJJHdbQ
h8H6g0zo4cnh6ZnQQ+dVLBTmXP1bMj7MNjTgChXLuu5CtVtc1AJxD21W4qxE5Dom
SJ5w4PBxqFk9jcivkFOjbzBt0omR3x/uDVg8iZrqnHijV0ZtJIyQf56vA63vCzFW
fHZlXg5RehLd6C2Ht7M/U9qvoE6kmudGfwP/k+3NTxuA1FmLF78ZB5IfxMzGnprs
WIP8cSW8IydxHAZZZQyh+S17wJNM1E1DxdmA9Vik4R6M1scF1116q6wDmNgX0Ko6
rOgmSO2Zroi7f/CSSJOiNE6wFKlm1IhWUKkiPVG8FC8SyxU5KOd0udvvSYvspDFl
D0Ss1E4ibtes9uX4cVRSgP/9afe8uvsam24ZFvTqfrGqoqirZj0A6vljsBOnGGwh
YkPCKaHz9fjk6omlJOKnpQXud5BvC1rhV8oc34/DH4zKnc/BBbXoEZD/VS5zLU27
TQ66u3jXY/IFp8A3hNmFWLpm9hB+YkOMLTTH+Akwafao5yvMWvSqqXS1uBfZw9xm
ZPXMM8D3BzIlVfjIus7uapvh6Pxc4oRa2DGcKM7aRVUQ37yYfzqUeylxmV4bJ5Wq
z3fRDTPoxcQLRThTXldvZEZUL3OqJukgBQIDAQABo4IBMjCCAS4wHQYDVR0OBBYE
FBz9o/9ZphSK79t7EpokeIfiKGqOMB8GA1UdIwQYMBaAFI8kfPfnaVG4WADzqJ2g
R3DNBIPKMAkGA1UdEwQCMAAwCwYDVR0PBAQDAgWgMB0GA1UdJQQWMBQGCCsGAQUF
BwMBBggrBgEFBQcDAjCBtAYDVR0RBIGsMIGpghBjb250cm9sY2VudGVyLW5ngixj
b250cm9sY2VudGVyLW5nLmNvbmZsdWVudC5zdmMuY2x1c3Rlci5sb2NhbIIYY29u
dHJvbGNlbnRlci1uZy1zZXJ2aWNlgh0qLmNvbmZsdWVudC5zdmMuY2x1c3Rlci5s
b2NhbIIuKi5jb250cm9sY2VudGVyLW5nLmNvbmZsdWVudC5zdmMuY2x1c3Rlci5s
b2NhbDANBgkqhkiG9w0BAQsFAAOCAgEAfp9I6C996idH72T3QoetzIlJztdpGezG
imvq7q3q7TZLTyoujoi4P6+RqKvSZbMuUJH2iGmppsaT7nP/jeGgLEnxoWBhHaxq
fjixrj1mtGlb7y3bH5kuzgvO0AdP9s+ZgaWJR2eZn7qyRywF+m40S5v2GnBU5Pl9
vILG0+qSBVwyfnpCoA7WnvI4E8Veoip8eBK/ETzVkVky56Q86JR6L/DZB5J8fckf
Wvb7O0XsWLDS8drkc0wBfCD9a9PSdnZpc3+f7Hnybtbpf6+YKb4k7GSNTi0JIIVA
ZCRcPlj3Dj3eVSxBwwSBV+wHz2+jGzn6Yxs/FRQ+g7Yu7ju+14+V03ObOgE2YGlh
iJFbTuPxdAmghlGkfRplnY0mDCWELEoSiOcV4B2zPLQNnsaH+fEnqbPtj6lAfG2P
+gTkyGL/1drdW6lhAqBCi9GB3GdiamxVkQdwc8tR7KixpKDtg/us3fC6uyx1Vd0o
KNmLpcCi3lM18QSx/mEnweLK3INGq4dHTx8GHFokY+xbmZO8tuaBYuv8yWK3CaDy
AX1qgOWnsQZlVLmj7QndmQVvcfIw1iBLHORffQaw+tuM4DaMVTqTLB9oEq1L/Rek
5/MKHAcZicXd1JyZ6APh2Hd/D36lgeq8ivzYxszJsoRSmo5rvwQfujI4E2BEdb+R
/WMYMqKnfuI=
-----END CERTIFICATE-----
