Certificate:
    Data:
        Version: 3 (0x2)
        Serial Number: 4106 (0x100a)
        Signature Algorithm: sha256WithRSAEncryption
        Issuer: CN=ca1.test.confluent.io, OU=TEST, O=CONFLUENT, L=PaloAlto, ST=Ca, C=US
        Validity
            Not Before: Sep 29 20:39:40 2025 GMT
            Not After : Jun 25 20:39:40 2028 GMT
        Subject: CN=alertmanager,OU=TEST,O=CONFLUENT,L=PaloAlto,S=Ca,C=US
        Subject Public Key Info:
            Public Key Algorithm: rsaEncryption
                Public-Key: (4096 bit)
                Modulus:
                    00:d2:63:5b:6c:13:3a:60:5e:b6:aa:c8:26:70:a2:
                    2e:81:61:9c:b1:a5:ca:52:f5:d4:df:b0:34:9d:33:
                    46:93:2c:bd:28:0c:45:72:0e:1f:51:d5:33:4c:49:
                    25:dc:ee:a3:65:3d:c3:7f:8a:32:47:31:17:e5:b3:
                    12:57:d6:aa:75:78:57:ec:c9:b4:f8:0a:65:bd:2a:
                    89:e1:f4:15:c5:a5:d0:a8:22:4b:57:2f:4e:9f:d0:
                    2f:56:99:22:0b:ff:92:3a:c6:44:77:b5:27:32:30:
                    6a:12:ff:b1:7c:9a:e4:36:42:f1:c3:0e:9a:43:cd:
                    a0:a8:5a:c9:be:69:0c:d6:78:da:a3:cb:38:14:34:
                    9e:24:e2:c4:be:42:04:08:9b:63:e6:cf:a6:36:4f:
                    bc:22:af:39:61:c8:34:15:a8:7f:50:26:64:94:da:
                    83:25:7f:7c:d2:40:9e:43:28:55:36:fb:ad:d8:67:
                    8e:89:c1:09:23:99:23:af:14:1f:bd:7b:0c:4a:fc:
                    78:6f:27:47:60:4c:8e:85:a1:67:02:b5:63:c2:e2:
                    33:2d:90:6c:c2:d7:e9:a5:b3:22:59:cc:0f:b8:63:
                    a5:52:b3:58:6e:9a:95:49:49:c3:a7:29:b2:98:74:
                    9b:c4:df:18:2e:5d:70:4b:a1:d5:a6:62:5f:f5:b3:
                    db:db:8a:1e:93:3c:d7:51:b4:0f:4d:8c:42:66:a8:
                    c2:df:63:13:a4:78:64:f0:0e:d1:c6:eb:af:72:4b:
                    77:01:ac:91:6f:f9:17:ca:fe:30:06:35:5b:a8:f8:
                    a7:d5:49:e2:a1:14:66:40:24:b7:02:dc:9b:20:dc:
                    5c:cf:9b:b8:25:31:64:41:d4:b7:f5:5e:00:be:75:
                    47:cf:6f:b5:9e:1f:7e:d2:23:bf:05:f1:4d:b7:f5:
                    15:b9:02:ba:d4:c9:64:8f:ee:bb:34:8c:74:f0:d6:
                    57:95:6b:5e:99:86:c8:a2:d0:76:78:78:96:6a:6c:
                    14:20:f9:27:5d:18:53:a4:fb:e4:34:28:c1:8b:04:
                    ca:08:aa:ed:ac:ad:8b:40:77:84:66:09:42:71:cc:
                    0c:33:79:c4:2f:f3:ed:0b:58:14:49:03:d4:86:f0:
                    fd:84:76:8a:d0:c1:da:fe:63:bf:da:ec:9f:92:f7:
                    d8:aa:c0:72:69:7e:c6:66:2a:ba:d8:c1:2e:84:e0:
                    83:92:a0:ff:58:34:3d:5f:6d:e9:9c:ab:e5:dd:4e:
                    2c:0e:e3:5e:ed:a6:f3:0b:b3:90:ad:c7:20:f1:04:
                    d0:5b:11:1e:f5:d0:21:97:e7:9e:9d:73:30:32:e2:
                    50:7b:6a:8a:61:ea:cc:06:26:0b:37:81:2e:20:05:
                    2d:76:95
                Exponent: 65537 (0x10001)
        X509v3 extensions:
            X509v3 Subject Key Identifier: 
                A6:FC:16:21:2A:C6:2B:D7:D9:0F:84:10:44:78:2F:A9:F5:C1:8F:72
            X509v3 Authority Key Identifier: 
                8F:24:7C:F7:E7:69:51:B8:58:00:F3:A8:9D:A0:47:70:CD:04:83:CA
            X509v3 Basic Constraints: 
                CA:FALSE
            X509v3 Key Usage: 
                Digital Signature, Key Encipherment
            X509v3 Extended Key Usage: 
                TLS Web Server Authentication, TLS Web Client Authentication
            X509v3 Subject Alternative Name: 
                DNS:alertmanager, DNS:alertmanager.confluent.svc.cluster.local, DNS:alertmanager-service, DNS:*.confluent.svc.cluster.local, DNS:*.alertmanager.confluent.svc.cluster.local
    Signature Algorithm: sha256WithRSAEncryption
    Signature Value:
        48:72:c7:9f:39:db:10:dd:0d:91:43:2b:0b:82:c3:05:bd:c7:
        c4:c6:bd:e4:95:ac:88:95:e5:f3:9c:a1:cc:d0:8d:93:8d:f9:
        59:04:d8:2c:af:71:67:0c:55:77:55:57:ed:13:1c:96:9b:03:
        0d:86:d6:75:9e:c8:6d:5b:f7:82:3c:cb:64:7d:82:5d:3e:4d:
        94:70:6a:46:08:f0:cc:87:ce:7f:0d:5a:f7:97:c4:62:62:b2:
        a0:e4:92:5d:a9:14:c8:ee:4a:0b:eb:df:1c:dd:ce:7e:d6:73:
        5e:56:d1:ca:53:c5:7a:d6:51:bd:8a:90:d8:47:30:6b:fd:9c:
        e4:48:d4:14:f1:28:43:3f:65:62:05:a6:c6:d5:ba:97:e2:45:
        3a:09:8c:87:51:69:71:4d:28:d9:11:a9:94:fa:81:e2:6f:f0:
        7f:03:bf:d9:a6:1c:c5:ff:fa:9f:07:e6:91:1c:d5:20:15:c8:
        3c:8a:d0:ff:c1:d3:ab:2d:52:b2:3a:e1:72:11:b5:0a:d8:92:
        bc:d9:1d:39:00:e5:6c:c9:40:50:6c:01:18:ce:5a:43:42:5e:
        a4:5d:80:15:98:96:ff:f9:01:f4:25:27:07:e9:8d:88:92:32:
        a6:86:a9:1c:19:50:b5:e4:cd:cb:46:5c:08:61:2e:ff:9d:35:
        a5:2d:eb:4a:bf:6b:5d:30:6c:62:00:a4:1f:44:90:24:31:3a:
        17:e5:e3:3c:24:0d:bc:f3:bb:67:fc:9a:7b:20:9c:ea:34:bb:
        25:fc:14:5f:6c:8b:9a:0a:25:a7:53:71:64:04:8e:c6:36:46:
        1d:8d:e5:6e:39:5b:5d:da:32:bf:7a:fd:98:8d:c3:66:e2:7a:
        de:9e:cd:40:a4:d4:c4:0a:99:1d:7d:49:b4:e3:d6:b5:83:03:
        fe:a4:75:42:36:f1:3b:c3:27:23:ba:9b:8c:de:22:c9:48:4b:
        ef:6f:c4:37:28:84:55:f9:04:a2:a0:87:91:78:77:48:13:71:
        6b:c4:6a:36:dd:91:4b:68:1d:df:84:71:eb:ca:00:5f:ec:d6:
        f2:3f:98:22:10:6f:42:9f:9e:e1:ed:fa:39:7e:07:f0:78:29:
        e7:3b:c2:a3:55:b2:af:f4:f1:f0:af:84:3b:e1:11:9a:8b:fb:
        b8:5b:16:12:8e:ed:eb:10:72:f2:32:41:2e:92:50:36:e0:1f:
        c6:53:50:07:aa:68:68:9c:91:80:50:9d:7b:11:b1:86:20:76:
        63:43:a0:f4:12:25:a2:08:b8:8a:ff:06:28:54:43:36:96:be:
        69:53:36:0b:0f:31:7f:66:88:d7:c6:70:34:c9:68:38:67:21:
        a3:19:0b:9e:11:a0:7e:1b
-----BEGIN CERTIFICATE-----
MIIGUDCCBDigAwIBAgICEAowDQYJKoZIhvcNAQELBQAwcDEeMBwGA1UEAwwVY2Ex
LnRlc3QuY29uZmx1ZW50LmlvMQ0wCwYDVQQLDARURVNUMRIwEAYDVQQKDAlDT05G
TFVFTlQxETAPBgNVBAcMCFBhbG9BbHRvMQswCQYDVQQIDAJDYTELMAkGA1UEBhMC
VVMwHhcNMjUwOTI5MjAzOTQwWhcNMjgwNjI1MjAzOTQwWjBAMT4wPAYDVQQDDDVh
bGVydG1hbmFnZXIsT1U9VEVTVCxPPUNPTkZMVUVOVCxMPVBhbG9BbHRvLFM9Q2Es
Qz1VUzCCAiIwDQYJKoZIhvcNAQEBBQADggIPADCCAgoCggIBANJjW2wTOmBetqrI
JnCiLoFhnLGlylL11N+wNJ0zRpMsvSgMRXIOH1HVM0xJJdzuo2U9w3+KMkcxF+Wz
ElfWqnV4V+zJtPgKZb0qieH0FcWl0KgiS1cvTp/QL1aZIgv/kjrGRHe1JzIwahL/
sXya5DZC8cMOmkPNoKhayb5pDNZ42qPLOBQ0niTixL5CBAibY+bPpjZPvCKvOWHI
NBWof1AmZJTagyV/fNJAnkMoVTb7rdhnjonBCSOZI68UH717DEr8eG8nR2BMjoWh
ZwK1Y8LiMy2QbMLX6aWzIlnMD7hjpVKzWG6alUlJw6cpsph0m8TfGC5dcEuh1aZi
X/Wz29uKHpM811G0D02MQmaowt9jE6R4ZPAO0cbrr3JLdwGskW/5F8r+MAY1W6j4
p9VJ4qEUZkAktwLcmyDcXM+buCUxZEHUt/VeAL51R89vtZ4fftIjvwXxTbf1FbkC
utTJZI/uuzSMdPDWV5VrXpmGyKLQdnh4lmpsFCD5J10YU6T75DQowYsEygiq7ayt
i0B3hGYJQnHMDDN5xC/z7QtYFEkD1Ibw/YR2itDB2v5jv9rsn5L32KrAcml+xmYq
utjBLoTgg5Kg/1g0PV9t6Zyr5d1OLA7jXu2m8wuzkK3HIPEE0FsRHvXQIZfnnp1z
MDLiUHtqimHqzAYmCzeBLiAFLXaVAgMBAAGjggEiMIIBHjAdBgNVHQ4EFgQUpvwW
ISrGK9fZD4QQRHgvqfXBj3IwHwYDVR0jBBgwFoAUjyR89+dpUbhYAPOonaBHcM0E
g8owCQYDVR0TBAIwADALBgNVHQ8EBAMCBaAwHQYDVR0lBBYwFAYIKwYBBQUHAwEG
CCsGAQUFBwMCMIGkBgNVHREEgZwwgZmCDGFsZXJ0bWFuYWdlcoIoYWxlcnRtYW5h
Z2VyLmNvbmZsdWVudC5zdmMuY2x1c3Rlci5sb2NhbIIUYWxlcnRtYW5hZ2VyLXNl
cnZpY2WCHSouY29uZmx1ZW50LnN2Yy5jbHVzdGVyLmxvY2FsgioqLmFsZXJ0bWFu
YWdlci5jb25mbHVlbnQuc3ZjLmNsdXN0ZXIubG9jYWwwDQYJKoZIhvcNAQELBQAD
ggIBAEhyx5852xDdDZFDKwuCwwW9x8TGveSVrIiV5fOcoczQjZON+VkE2CyvcWcM
VXdVV+0THJabAw2G1nWeyG1b94I8y2R9gl0+TZRwakYI8MyHzn8NWveXxGJisqDk
kl2pFMjuSgvr3xzdzn7Wc15W0cpTxXrWUb2KkNhHMGv9nORI1BTxKEM/ZWIFpsbV
upfiRToJjIdRaXFNKNkRqZT6geJv8H8Dv9mmHMX/+p8H5pEc1SAVyDyK0P/B06st
UrI64XIRtQrYkrzZHTkA5WzJQFBsARjOWkNCXqRdgBWYlv/5AfQlJwfpjYiSMqaG
qRwZULXkzctGXAhhLv+dNaUt60q/a10wbGIApB9EkCQxOhfl4zwkDbzzu2f8mnsg
nOo0uyX8FF9si5oKJadTcWQEjsY2Rh2N5W45W13aMr96/ZiNw2biet6ezUCk1MQK
mR19SbTj1rWDA/6kdUI28TvDJyO6m4zeIslIS+9vxDcohFX5BKKgh5F4d0gTcWvE
ajbdkUtoHd+EcevKAF/s1vI/mCIQb0KfnuHt+jl+B/B4Kec7wqNVsq/08fCvhDvh
EZqL+7hbFhKO7esQcvIyQS6SUDbgH8ZTUAeqaGickYBQnXsRsYYgdmNDoPQSJaII
uIr/BihUQzaWvmlTNgsPMX9miNfGcDTJaDhnIaMZC54RoH4b
-----END CERTIFICATE-----
