Certificate:
    Data:
        Version: 3 (0x2)
        Serial Number: 4109 (0x100d)
        Signature Algorithm: sha256WithRSAEncryption
        Issuer: CN=ca1.test.confluent.io, OU=TEST, O=CONFLUENT, L=PaloAlto, ST=Ca, C=US
        Validity
            Not Before: Sep 29 20:39:42 2025 GMT
            Not After : Jun 25 20:39:42 2028 GMT
        Subject: CN=connector,OU=TEST,O=CONFLUENT,L=PaloAlto,S=Ca,C=US
        Subject Public Key Info:
            Public Key Algorithm: rsaEncryption
                Public-Key: (4096 bit)
                Modulus:
                    00:88:66:47:2b:ff:cd:6e:72:2c:ae:60:09:bd:ec:
                    65:f7:8c:da:75:94:b4:e7:9c:7b:12:32:ce:2e:c8:
                    3d:77:0a:1f:2f:ba:23:ee:b0:97:89:f1:51:cc:84:
                    c2:21:1f:53:10:6e:e0:cc:97:dd:1e:ca:55:1b:1f:
                    bf:21:c4:2b:da:42:0e:6f:ab:6e:bc:70:3e:48:c4:
                    2e:00:30:9f:89:fc:b0:70:b2:e6:c3:12:f0:df:dd:
                    8d:57:d1:00:f3:98:b8:d4:4f:a1:0d:89:e2:57:90:
                    85:d9:25:8a:71:09:b1:6c:12:9e:e1:2a:fe:21:0b:
                    e3:98:e1:32:38:84:7a:f3:3d:74:41:61:cb:49:f9:
                    be:15:1f:82:d1:85:bd:22:e3:f6:72:13:e6:f4:34:
                    eb:1d:49:51:be:10:23:cc:fd:61:89:f2:e2:16:1d:
                    39:6b:30:88:af:12:e0:5d:db:06:d7:c8:09:68:93:
                    f0:e9:30:95:63:a3:86:b2:86:81:88:64:25:7a:a3:
                    1a:66:38:ee:be:c7:55:18:a5:52:ae:67:0f:f3:96:
                    fb:73:c1:64:0b:69:b4:58:9e:6d:3c:d3:1d:9c:52:
                    4d:d6:f0:33:84:7b:2f:4c:38:f3:08:18:f5:47:4c:
                    94:13:bc:06:d8:22:90:ec:e1:23:4d:8b:6e:b6:5a:
                    81:e1:e0:2a:f4:9c:8b:fa:8b:55:65:8a:e4:a5:b1:
                    2a:c9:eb:28:e9:6b:12:5c:ae:b8:26:96:9a:a5:69:
                    24:45:0b:f0:d0:01:e7:a7:3f:5c:34:a1:af:e7:52:
                    a5:80:23:af:89:79:c1:88:27:bb:a5:f0:af:a4:cb:
                    a1:e4:63:5f:22:8d:29:52:37:77:8e:e0:3a:b0:ae:
                    44:e3:08:05:11:47:d5:d9:fa:04:57:e8:90:86:7b:
                    0b:40:b2:51:64:0e:2a:3b:c6:61:21:f9:81:ca:17:
                    27:d7:80:5b:62:e7:81:3b:11:71:8e:be:95:f2:5a:
                    60:2d:89:78:99:65:40:36:93:42:48:e8:a8:e4:fe:
                    46:90:e0:07:36:53:e1:b2:4f:80:b8:a0:34:08:6b:
                    a4:13:dc:de:ea:fd:18:2f:22:0c:a3:30:e6:ea:ec:
                    2d:85:14:74:4e:46:9e:03:e1:9d:56:14:05:a9:82:
                    c0:31:9d:2b:eb:c6:1d:28:4a:ce:8c:8f:c0:7b:24:
                    06:af:2d:0f:08:2f:5a:58:85:1f:a7:f6:44:a7:ff:
                    76:e8:3f:40:67:ef:33:93:b7:d5:8d:4f:36:fa:e6:
                    55:dd:77:2f:b7:f6:25:9a:1b:60:ef:9a:fc:33:2d:
                    b3:dc:47:44:bf:13:06:e0:29:e3:21:4d:68:63:46:
                    20:57:5f
                Exponent: 65537 (0x10001)
        X509v3 extensions:
            X509v3 Subject Key Identifier: 
                A3:E2:5B:22:03:69:AB:65:8F:90:E8:FA:D2:C7:6C:77:61:01:87:CE
            X509v3 Authority Key Identifier: 
                8F:24:7C:F7:E7:69:51:B8:58:00:F3:A8:9D:A0:47:70:CD:04:83:CA
            X509v3 Basic Constraints: 
                CA:FALSE
            X509v3 Key Usage: 
                Digital Signature, Key Encipherment
            X509v3 Extended Key Usage: 
                TLS Web Server Authentication, TLS Web Client Authentication
            X509v3 Subject Alternative Name: 
                DNS:connector, DNS:connector.confluent.svc.cluster.local, DNS:connector-service, DNS:*.confluent.svc.cluster.local, DNS:*.connector.confluent.svc.cluster.local
    Signature Algorithm: sha256WithRSAEncryption
    Signature Value:
        5c:d5:16:1c:4c:1b:c5:ec:e3:09:07:9b:f7:86:c1:33:14:f0:
        25:64:f1:09:b3:8b:21:18:96:a3:b4:89:36:65:93:0f:87:0b:
        6c:ef:f4:0d:6d:f3:95:be:19:04:d6:81:18:5f:64:94:be:34:
        ae:ec:d0:af:a6:c8:48:54:ac:1e:3f:72:27:14:f1:9f:24:db:
        46:a3:a5:31:49:7a:bc:2a:33:81:41:64:5b:c9:2b:ea:d7:8a:
        cd:73:e4:7a:44:af:25:c5:cd:89:2b:00:3e:c0:12:6c:35:52:
        38:68:a0:0c:32:d5:69:18:6d:bf:52:b7:fa:d4:ab:aa:4a:30:
        c4:46:03:af:97:16:ea:de:89:2f:19:5c:66:3e:ab:67:e9:9a:
        8b:90:28:71:5a:f0:ad:d8:a2:c5:e7:dd:69:09:69:fb:f4:e8:
        d7:54:47:08:55:8c:c4:19:99:c6:c0:7b:a5:1f:52:6c:e3:78:
        3e:fb:c8:4e:57:41:22:17:eb:3f:8a:c9:a9:ac:d0:d7:12:f3:
        ff:e7:88:5a:15:ec:95:09:50:d9:d7:31:d5:83:26:c0:c5:2e:
        8a:92:7a:01:b8:9c:f3:ed:63:d6:34:5d:9b:fb:c2:8d:59:f9:
        76:0c:c4:a0:3b:57:12:27:4e:34:5a:74:52:6a:b6:b4:02:54:
        4d:e4:11:04:41:61:e5:20:1d:37:f3:70:ba:a2:36:ca:59:1b:
        8b:14:62:45:cc:3c:2d:9f:45:1f:59:4f:5b:bb:13:d7:44:72:
        6f:92:60:17:37:35:73:bb:90:b8:a8:01:42:94:9a:7b:3c:54:
        9c:94:7d:20:84:51:59:e3:89:4c:2a:05:6d:43:9a:46:58:f0:
        4a:12:55:c8:3c:99:46:b3:3e:25:8a:7f:90:77:9f:ce:66:49:
        6e:fa:44:fa:df:fc:c7:79:38:7f:a8:b8:eb:4e:3d:fb:a1:9e:
        b9:05:af:9e:7c:86:d5:13:c1:40:50:14:e9:8e:32:fc:7a:31:
        30:00:21:2a:f5:63:7b:65:ae:44:db:06:76:52:e0:03:bb:68:
        96:c0:fa:8e:5a:19:de:22:86:ba:ec:3f:1e:ea:6c:04:eb:4e:
        5e:76:1f:7e:fd:a2:fb:14:de:07:2d:25:06:2d:66:9a:69:9a:
        73:2c:94:e6:02:ba:8a:af:de:a0:03:71:3c:f2:64:e8:8c:80:
        e1:9b:8e:b9:0d:65:e5:d4:c2:2f:98:4a:92:95:7b:58:79:81:
        74:c5:92:51:d6:51:34:66:d3:bc:69:8f:7f:b5:32:7c:6a:cc:
        c8:96:27:ef:ac:af:fc:8d:d8:37:da:a7:7c:b4:6b:f5:69:50:
        56:10:b6:12:f4:9d:d4:e4
-----BEGIN CERTIFICATE-----
MIIGQTCCBCmgAwIBAgICEA0wDQYJKoZIhvcNAQELBQAwcDEeMBwGA1UEAwwVY2Ex
LnRlc3QuY29uZmx1ZW50LmlvMQ0wCwYDVQQLDARURVNUMRIwEAYDVQQKDAlDT05G
TFVFTlQxETAPBgNVBAcMCFBhbG9BbHRvMQswCQYDVQQIDAJDYTELMAkGA1UEBhMC
VVMwHhcNMjUwOTI5MjAzOTQyWhcNMjgwNjI1MjAzOTQyWjA9MTswOQYDVQQDDDJj
b25uZWN0b3IsT1U9VEVTVCxPPUNPTkZMVUVOVCxMPVBhbG9BbHRvLFM9Q2EsQz1V
UzCCAiIwDQYJKoZIhvcNAQEBBQADggIPADCCAgoCggIBAIhmRyv/zW5yLK5gCb3s
ZfeM2nWUtOecexIyzi7IPXcKHy+6I+6wl4nxUcyEwiEfUxBu4MyX3R7KVRsfvyHE
K9pCDm+rbrxwPkjELgAwn4n8sHCy5sMS8N/djVfRAPOYuNRPoQ2J4leQhdklinEJ
sWwSnuEq/iEL45jhMjiEevM9dEFhy0n5vhUfgtGFvSLj9nIT5vQ06x1JUb4QI8z9
YYny4hYdOWswiK8S4F3bBtfICWiT8OkwlWOjhrKGgYhkJXqjGmY47r7HVRilUq5n
D/OW+3PBZAtptFiebTzTHZxSTdbwM4R7L0w48wgY9UdMlBO8BtgikOzhI02LbrZa
geHgKvSci/qLVWWK5KWxKsnrKOlrElyuuCaWmqVpJEUL8NAB56c/XDShr+dSpYAj
r4l5wYgnu6Xwr6TLoeRjXyKNKVI3d47gOrCuROMIBRFH1dn6BFfokIZ7C0CyUWQO
KjvGYSH5gcoXJ9eAW2LngTsRcY6+lfJaYC2JeJllQDaTQkjoqOT+RpDgBzZT4bJP
gLigNAhrpBPc3ur9GC8iDKMw5ursLYUUdE5GngPhnVYUBamCwDGdK+vGHShKzoyP
wHskBq8tDwgvWliFH6f2RKf/dug/QGfvM5O31Y1PNvrmVd13L7f2JZobYO+a/DMt
s9xHRL8TBuAp4yFNaGNGIFdfAgMBAAGjggEWMIIBEjAdBgNVHQ4EFgQUo+JbIgNp
q2WPkOj60sdsd2EBh84wHwYDVR0jBBgwFoAUjyR89+dpUbhYAPOonaBHcM0Eg8ow
CQYDVR0TBAIwADALBgNVHQ8EBAMCBaAwHQYDVR0lBBYwFAYIKwYBBQUHAwEGCCsG
AQUFBwMCMIGYBgNVHREEgZAwgY2CCWNvbm5lY3RvcoIlY29ubmVjdG9yLmNvbmZs
dWVudC5zdmMuY2x1c3Rlci5sb2NhbIIRY29ubmVjdG9yLXNlcnZpY2WCHSouY29u
Zmx1ZW50LnN2Yy5jbHVzdGVyLmxvY2FsgicqLmNvbm5lY3Rvci5jb25mbHVlbnQu
c3ZjLmNsdXN0ZXIubG9jYWwwDQYJKoZIhvcNAQELBQADggIBAFzVFhxMG8Xs4wkH
m/eGwTMU8CVk8QmziyEYlqO0iTZlkw+HC2zv9A1t85W+GQTWgRhfZJS+NK7s0K+m
yEhUrB4/cicU8Z8k20ajpTFJerwqM4FBZFvJK+rXis1z5HpEryXFzYkrAD7AEmw1
UjhooAwy1WkYbb9St/rUq6pKMMRGA6+XFureiS8ZXGY+q2fpmouQKHFa8K3YosXn
3WkJafv06NdURwhVjMQZmcbAe6UfUmzjeD77yE5XQSIX6z+Kyams0NcS8//niFoV
7JUJUNnXMdWDJsDFLoqSegG4nPPtY9Y0XZv7wo1Z+XYMxKA7VxInTjRadFJqtrQC
VE3kEQRBYeUgHTfzcLqiNspZG4sUYkXMPC2fRR9ZT1u7E9dEcm+SYBc3NXO7kLio
AUKUmns8VJyUfSCEUVnjiUwqBW1DmkZY8EoSVcg8mUazPiWKf5B3n85mSW76RPrf
/Md5OH+ouOtOPfuhnrkFr558htUTwUBQFOmOMvx6MTAAISr1Y3tlrkTbBnZS4AO7
aJbA+o5aGd4ihrrsPx7qbATrTl52H379ovsU3gctJQYtZpppmnMslOYCuoqv3qAD
cTzyZOiMgOGbjrkNZeXUwi+YSpKVe1h5gXTFklHWUTRm07xpj3+1MnxqzMiWJ++s
r/yN2Dfap3y0a/VpUFYQthL0ndTk
-----END CERTIFICATE-----
