Certificate:
    Data:
        Version: 3 (0x2)
        Serial Number: 4105 (0x1009)
        Signature Algorithm: sha256WithRSAEncryption
        Issuer: CN=ca1.test.confluent.io, OU=TEST, O=CONFLUENT, L=PaloAlto, ST=Ca, C=US
        Validity
            Not Before: Sep 29 20:39:39 2025 GMT
            Not After : Jun 25 20:39:39 2028 GMT
        Subject: CN=prometheus,OU=TEST,O=CONFLUENT,L=PaloAlto,S=Ca,C=US
        Subject Public Key Info:
            Public Key Algorithm: rsaEncryption
                Public-Key: (4096 bit)
                Modulus:
                    00:cc:97:75:7b:13:63:64:ce:36:2b:53:44:0e:9b:
                    dd:d7:33:61:fe:5a:3b:12:e9:23:01:fc:eb:ce:43:
                    d8:43:a9:92:b3:bb:b0:e3:3d:3a:30:c8:f3:d2:ef:
                    5a:17:a0:0f:57:8d:ba:64:28:f2:e8:e3:0f:d3:9b:
                    6a:2e:e7:f5:cf:b7:b1:20:73:7b:a9:c3:cc:7a:1b:
                    8a:5b:a9:73:a7:f8:72:55:64:18:26:1b:9b:23:d1:
                    0b:40:0f:85:ba:ca:94:95:3a:e7:a4:d9:87:05:3a:
                    b8:d5:78:34:7c:db:9a:b7:35:7c:fe:fc:b6:e4:f8:
                    ca:1f:f3:db:79:95:d9:21:6f:27:eb:36:e5:a4:75:
                    a1:24:e8:b9:16:cb:b5:65:85:b1:ef:5b:0b:92:52:
                    9e:4f:f1:03:54:1a:a0:72:7a:20:b2:4a:19:a9:e6:
                    0a:97:8d:a0:6a:81:f3:be:de:69:80:8a:97:af:8e:
                    35:97:e1:26:f7:fe:d0:83:fa:57:ec:85:e1:cc:bd:
                    12:4c:e1:1c:25:f1:93:dd:1d:19:c4:e0:79:12:73:
                    72:5f:0d:30:4a:25:92:78:79:e2:fd:a9:3a:f5:b5:
                    ee:a4:78:85:a8:5d:77:35:39:94:72:e7:7a:f5:57:
                    b0:e1:aa:ce:80:b6:39:82:02:7c:bc:d9:49:72:ef:
                    fe:9f:54:bc:2b:15:77:2c:cd:e3:45:16:51:40:2b:
                    33:75:e1:68:7b:35:00:75:3d:a9:9e:e3:03:e4:ea:
                    df:e5:62:f1:56:45:d3:2d:5f:a8:e0:b1:02:e2:a9:
                    23:b3:e4:2d:b2:49:7b:46:d1:ba:e1:12:25:61:f9:
                    01:c1:d1:dc:7f:95:d2:23:18:a6:c0:aa:b8:89:70:
                    45:b9:21:09:81:a5:68:5f:37:24:1a:90:2d:54:ad:
                    95:f9:16:d3:ed:c4:fe:69:a1:f4:f7:e5:74:dc:54:
                    5d:40:6b:53:80:b9:24:50:9b:83:4f:25:5a:64:28:
                    3a:ca:29:30:8d:b2:fb:15:1e:9b:bb:45:6a:2b:5a:
                    9a:0b:b0:10:05:20:4b:7c:2a:9b:c3:27:af:23:d8:
                    34:a1:ce:72:e0:c4:e1:89:2e:42:9d:a4:fa:3d:33:
                    72:96:44:ff:c8:e0:37:b6:10:c0:91:b3:68:61:4e:
                    d8:87:09:d8:27:f3:b7:a3:cd:84:4a:96:f5:3a:ee:
                    32:00:5d:be:29:ea:75:f4:1d:7e:f4:da:c3:19:d1:
                    00:64:ff:70:00:e6:fb:54:fc:f4:b4:39:7c:6e:1a:
                    d9:d9:cf:53:31:9f:a2:c9:40:d5:f5:f8:b8:ec:5c:
                    a9:e7:b6:0c:9d:97:a4:f8:91:8f:2b:f4:36:ff:36:
                    cb:c5:d7
                Exponent: 65537 (0x10001)
        X509v3 extensions:
            X509v3 Subject Key Identifier: 
                2F:7F:51:E5:8B:C7:0E:EF:C4:1D:2B:B1:60:02:C0:8B:2E:D6:06:EC
            X509v3 Authority Key Identifier: 
                8F:24:7C:F7:E7:69:51:B8:58:00:F3:A8:9D:A0:47:70:CD:04:83:CA
            X509v3 Basic Constraints: 
                CA:FALSE
            X509v3 Key Usage: 
                Digital Signature, Key Encipherment
            X509v3 Extended Key Usage: 
                TLS Web Server Authentication, TLS Web Client Authentication
            X509v3 Subject Alternative Name: 
                DNS:prometheus, DNS:prometheus.confluent.svc.cluster.local, DNS:prometheus-service, DNS:*.confluent.svc.cluster.local, DNS:*.prometheus.confluent.svc.cluster.local
    Signature Algorithm: sha256WithRSAEncryption
    Signature Value:
        1f:45:2f:a7:63:91:3d:fe:1e:7c:51:1e:58:35:3f:4b:45:7c:
        28:25:b6:83:22:b7:ba:5d:80:82:df:5c:3a:17:09:52:4b:88:
        a4:62:f9:22:9d:64:dc:2a:ea:5d:07:aa:f4:80:ed:51:fa:b0:
        9e:d4:ef:52:e4:de:97:70:fe:ea:11:2d:bf:c0:c2:c8:2e:e7:
        ca:b3:8a:05:a6:45:07:05:1a:30:69:f7:d3:2c:63:2a:66:18:
        f9:1e:14:66:c9:93:0d:a0:59:17:00:04:91:38:57:3c:a3:15:
        f4:b0:7e:d4:10:8b:53:78:e9:53:9c:91:6e:4e:3c:7f:ed:ca:
        ed:4e:c9:6b:15:5b:53:2b:0b:13:bf:fe:20:af:08:8d:ad:79:
        48:2b:1e:3b:6a:cb:51:8e:58:aa:11:4f:d8:f0:84:ab:63:de:
        c1:55:8f:8a:30:e3:3a:b8:f3:37:0c:05:9a:db:93:1d:86:fa:
        4e:e1:fa:6e:c5:64:d6:0d:59:50:3b:b5:24:10:c0:53:81:94:
        90:87:b7:f9:97:cc:f7:66:fb:ac:e1:93:ba:dc:53:af:70:a3:
        aa:03:b6:74:cf:00:65:d3:32:58:a9:bc:ba:0d:47:c6:2d:e0:
        a5:3d:ca:a2:fc:58:35:f0:72:38:76:43:b8:a3:e4:a4:d1:88:
        41:94:3a:75:ed:b9:74:92:f7:96:c5:be:76:19:f8:5f:91:24:
        98:1e:0c:d7:f2:0c:e8:48:49:8c:5e:39:9d:b8:63:1f:1f:8b:
        a0:01:ad:2a:c2:e7:2d:11:2e:84:0b:f9:60:39:36:ce:58:1b:
        9b:d0:ea:9e:75:7b:3e:5a:75:79:ca:53:e4:09:8f:b2:5c:45:
        d9:f5:e9:87:15:a6:33:59:36:63:ba:2e:7f:c9:14:4a:f5:18:
        29:26:0d:91:cc:4f:fe:28:23:1c:e6:fb:b7:93:b6:30:67:64:
        b5:7d:9e:b2:e0:b5:0b:f7:77:e8:42:4c:46:37:e4:88:59:9c:
        af:55:33:9b:01:ec:9d:ff:d9:20:15:0e:03:32:61:b3:a6:09:
        34:0d:09:7d:b7:b1:34:a2:e2:d0:95:dd:56:3a:fc:08:93:0c:
        ac:34:98:01:51:77:07:6d:28:6f:66:4a:1b:d2:e7:a5:56:2f:
        d9:2b:cc:92:16:96:f5:c7:a1:d5:f8:68:23:16:9c:34:d0:15:
        c5:8b:4e:27:42:a9:f9:95:26:63:27:f5:1c:83:c5:72:ff:69:
        62:d9:95:8d:dd:ba:45:0c:97:ba:d5:43:e3:b7:26:f6:23:98:
        af:2f:e7:ab:a8:5e:0b:28:e4:fb:06:9a:c5:31:b4:75:34:79:
        19:71:3b:c7:1c:83:09:e8
-----BEGIN CERTIFICATE-----
MIIGRjCCBC6gAwIBAgICEAkwDQYJKoZIhvcNAQELBQAwcDEeMBwGA1UEAwwVY2Ex
LnRlc3QuY29uZmx1ZW50LmlvMQ0wCwYDVQQLDARURVNUMRIwEAYDVQQKDAlDT05G
TFVFTlQxETAPBgNVBAcMCFBhbG9BbHRvMQswCQYDVQQIDAJDYTELMAkGA1UEBhMC
VVMwHhcNMjUwOTI5MjAzOTM5WhcNMjgwNjI1MjAzOTM5WjA+MTwwOgYDVQQDDDNw
cm9tZXRoZXVzLE9VPVRFU1QsTz1DT05GTFVFTlQsTD1QYWxvQWx0byxTPUNhLEM9
VVMwggIiMA0GCSqGSIb3DQEBAQUAA4ICDwAwggIKAoICAQDMl3V7E2NkzjYrU0QO
m93XM2H+WjsS6SMB/OvOQ9hDqZKzu7DjPTowyPPS71oXoA9XjbpkKPLo4w/Tm2ou
5/XPt7Egc3upw8x6G4pbqXOn+HJVZBgmG5sj0QtAD4W6ypSVOuek2YcFOrjVeDR8
25q3NXz+/Lbk+Mof89t5ldkhbyfrNuWkdaEk6LkWy7VlhbHvWwuSUp5P8QNUGqBy
eiCyShmp5gqXjaBqgfO+3mmAipevjjWX4Sb3/tCD+lfsheHMvRJM4Rwl8ZPdHRnE
4HkSc3JfDTBKJZJ4eeL9qTr1te6keIWoXXc1OZRy53r1V7Dhqs6AtjmCAny82Uly
7/6fVLwrFXcszeNFFlFAKzN14Wh7NQB1Pame4wPk6t/lYvFWRdMtX6jgsQLiqSOz
5C2ySXtG0brhEiVh+QHB0dx/ldIjGKbAqriJcEW5IQmBpWhfNyQakC1UrZX5FtPt
xP5pofT35XTcVF1Aa1OAuSRQm4NPJVpkKDrKKTCNsvsVHpu7RWorWpoLsBAFIEt8
KpvDJ68j2DShznLgxOGJLkKdpPo9M3KWRP/I4De2EMCRs2hhTtiHCdgn87ejzYRK
lvU67jIAXb4p6nX0HX702sMZ0QBk/3AA5vtU/PS0OXxuGtnZz1Mxn6LJQNX1+Ljs
XKnntgydl6T4kY8r9Db/NsvF1wIDAQABo4IBGjCCARYwHQYDVR0OBBYEFC9/UeWL
xw7vxB0rsWACwIsu1gbsMB8GA1UdIwQYMBaAFI8kfPfnaVG4WADzqJ2gR3DNBIPK
MAkGA1UdEwQCMAAwCwYDVR0PBAQDAgWgMB0GA1UdJQQWMBQGCCsGAQUFBwMBBggr
BgEFBQcDAjCBnAYDVR0RBIGUMIGRggpwcm9tZXRoZXVzgiZwcm9tZXRoZXVzLmNv
bmZsdWVudC5zdmMuY2x1c3Rlci5sb2NhbIIScHJvbWV0aGV1cy1zZXJ2aWNlgh0q
LmNvbmZsdWVudC5zdmMuY2x1c3Rlci5sb2NhbIIoKi5wcm9tZXRoZXVzLmNvbmZs
dWVudC5zdmMuY2x1c3Rlci5sb2NhbDANBgkqhkiG9w0BAQsFAAOCAgEAH0Uvp2OR
Pf4efFEeWDU/S0V8KCW2gyK3ul2Agt9cOhcJUkuIpGL5Ip1k3CrqXQeq9IDtUfqw
ntTvUuTel3D+6hEtv8DCyC7nyrOKBaZFBwUaMGn30yxjKmYY+R4UZsmTDaBZFwAE
kThXPKMV9LB+1BCLU3jpU5yRbk48f+3K7U7JaxVbUysLE7/+IK8Ija15SCseO2rL
UY5YqhFP2PCEq2PewVWPijDjOrjzNwwFmtuTHYb6TuH6bsVk1g1ZUDu1JBDAU4GU
kIe3+ZfM92b7rOGTutxTr3CjqgO2dM8AZdMyWKm8ug1Hxi3gpT3KovxYNfByOHZD
uKPkpNGIQZQ6de25dJL3lsW+dhn4X5EkmB4M1/IM6EhJjF45nbhjHx+LoAGtKsLn
LREuhAv5YDk2zlgbm9DqnnV7Plp1ecpT5AmPslxF2fXphxWmM1k2Y7ouf8kUSvUY
KSYNkcxP/igjHOb7t5O2MGdktX2esuC1C/d36EJMRjfkiFmcr1UzmwHsnf/ZIBUO
AzJhs6YJNA0JfbexNKLi0JXdVjr8CJMMrDSYAVF3B20ob2ZKG9LnpVYv2SvMkhaW
9ceh1fhoIxacNNAVxYtOJ0Kp+ZUmYyf1HIPFcv9pYtmVjd26RQyXutVD47cm9iOY
ry/nq6heCyjk+waaxTG0dTR5GXE7xxyDCeg=
-----END CERTIFICATE-----
